SF:C:\Users\atv\Documents\src\eu4rs\eu4data\src\countries.rs
FN:105,_RNvNtNtCs3CepgdPYNPZ_7eu4data9countries5testss_14test_load_tags
FN:142,_RNvNtNtCs3CepgdPYNPZ_7eu4data9countries5testss_21test_load_country_map
FN:71,_RNvNtCs3CepgdPYNPZ_7eu4data9countries16load_country_map
FN:23,_RNvNtCs3CepgdPYNPZ_7eu4data9countries9load_tags
FN:85,_RNCNCNvNtCs3CepgdPYNPZ_7eu4data9countries16load_country_map00B7_
FN:77,_RNCNvNtCs3CepgdPYNPZ_7eu4data9countries16load_country_map0B5_
FN:31,_RNCNvNtCs3CepgdPYNPZ_7eu4data9countries9load_tags0B5_
FN:33,_RNCNvNtCs3CepgdPYNPZ_7eu4data9countries9load_tagss_0B5_
FN:71,_RNvNtCs1DvYjaJLFM2_7eu4data9countries16load_country_map
FN:23,_RNvNtCs1DvYjaJLFM2_7eu4data9countries9load_tags
FN:85,_RNCNCNvNtCs1DvYjaJLFM2_7eu4data9countries16load_country_map00B7_
FN:77,_RNCNvNtCs1DvYjaJLFM2_7eu4data9countries16load_country_map0B5_
FN:31,_RNCNvNtCs1DvYjaJLFM2_7eu4data9countries9load_tags0B5_
FN:33,_RNCNvNtCs1DvYjaJLFM2_7eu4data9countries9load_tagss_0B5_
FNDA:1,_RNvNtNtCs3CepgdPYNPZ_7eu4data9countries5testss_14test_load_tags
FNDA:1,_RNvNtNtCs3CepgdPYNPZ_7eu4data9countries5testss_21test_load_country_map
FNDA:1,_RNvNtCs3CepgdPYNPZ_7eu4data9countries16load_country_map
FNDA:1,_RNvNtCs3CepgdPYNPZ_7eu4data9countries9load_tags
FNDA:2,_RNCNCNvNtCs3CepgdPYNPZ_7eu4data9countries16load_country_map00B7_
FNDA:3,_RNCNvNtCs3CepgdPYNPZ_7eu4data9countries16load_country_map0B5_
FNDA:1,_RNCNvNtCs3CepgdPYNPZ_7eu4data9countries9load_tags0B5_
FNDA:0,_RNCNvNtCs3CepgdPYNPZ_7eu4data9countries9load_tagss_0B5_
FNDA:1,_RNvNtCs1DvYjaJLFM2_7eu4data9countries16load_country_map
FNDA:1,_RNvNtCs1DvYjaJLFM2_7eu4data9countries9load_tags
FNDA:1,_RNCNCNvNtCs1DvYjaJLFM2_7eu4data9countries16load_country_map00B7_
FNDA:1,_RNCNvNtCs1DvYjaJLFM2_7eu4data9countries16load_country_map0B5_
FNDA:1,_RNCNvNtCs1DvYjaJLFM2_7eu4data9countries9load_tags0B5_
FNDA:0,_RNCNvNtCs1DvYjaJLFM2_7eu4data9countries9load_tagss_0B5_
FNF:8
FNH:7
DA:23,2
DA:24,2
DA:25,2
DA:27,2
DA:28,2
DA:29,2
DA:30,2
DA:31,2
DA:32,2
DA:33,2
DA:38,2
DA:39,5
DA:40,3
DA:41,3
DA:42,3
DA:44,3
DA:45,3
DA:46,0
DA:47,0
DA:50,3
DA:51,3
DA:52,0
DA:55,3
DA:56,3
DA:57,3
DA:58,0
DA:60,0
DA:61,0
DA:63,0
DA:64,2
DA:65,2
DA:71,2
DA:72,2
DA:77,4
DA:78,4
DA:80,4
DA:81,1
DA:82,3
DA:85,3
DA:86,3
DA:87,3
DA:88,3
DA:91,3
DA:92,3
DA:93,3
DA:94,4
DA:96,2
DA:97,2
DA:105,1
DA:106,1
DA:107,1
DA:108,1
DA:110,1
DA:111,1
DA:112,1
DA:113,1
DA:114,1
DA:115,1
DA:116,1
DA:117,1
DA:119,1
DA:121,1
DA:122,1
DA:123,1
DA:124,1
DA:125,1
DA:126,1
DA:127,1
DA:128,1
DA:131,1
DA:132,1
DA:133,1
DA:134,1
DA:135,1
DA:136,1
DA:139,1
DA:142,1
DA:143,1
DA:144,1
DA:145,1
DA:148,1
DA:149,1
DA:150,1
DA:151,1
DA:152,1
DA:153,1
DA:154,1
DA:156,1
DA:158,1
DA:159,1
DA:160,1
DA:161,1
DA:162,1
DA:163,1
DA:164,1
DA:166,1
DA:169,1
DA:170,1
DA:171,1
DA:172,1
DA:174,1
DA:175,1
DA:176,1
DA:178,1
DA:179,1
DA:180,1
DA:184,1
DA:186,1
DA:188,1
DA:189,1
DA:191,1
DA:192,1
DA:194,1
DA:195,1
BRF:0
BRH:0
LF:118
LH:110
end_of_record
SF:C:\Users\atv\Documents\src\eu4rs\eu4data\src\history.rs
FN:101,_RNvNtNtCs3CepgdPYNPZ_7eu4data7history5testss_26test_load_province_history
FN:30,_RNvNtCs3CepgdPYNPZ_7eu4data7history21load_province_history
FN:46,_RNCNCNvNtCs3CepgdPYNPZ_7eu4data7history21load_province_historys_00B7_
FN:51,_RNCNCNvNtCs3CepgdPYNPZ_7eu4data7history21load_province_historys_0s_0B7_
FN:39,_RNCNvNtCs3CepgdPYNPZ_7eu4data7history21load_province_history0B5_
FN:44,_RNCNvNtCs3CepgdPYNPZ_7eu4data7history21load_province_historys_0B5_
FN:30,_RNvNtCs1DvYjaJLFM2_7eu4data7history21load_province_history
FN:46,_RNCNCNvNtCs1DvYjaJLFM2_7eu4data7history21load_province_historys_00B7_
FN:51,_RNCNCNvNtCs1DvYjaJLFM2_7eu4data7history21load_province_historys_0s_0B7_
FN:39,_RNCNvNtCs1DvYjaJLFM2_7eu4data7history21load_province_history0B5_
FN:44,_RNCNvNtCs1DvYjaJLFM2_7eu4data7history21load_province_historys_0B5_
FNDA:1,_RNvNtNtCs3CepgdPYNPZ_7eu4data7history5testss_26test_load_province_history
FNDA:1,_RNvNtCs3CepgdPYNPZ_7eu4data7history21load_province_history
FNDA:4,_RNCNCNvNtCs3CepgdPYNPZ_7eu4data7history21load_province_historys_00B7_
FNDA:4,_RNCNCNvNtCs3CepgdPYNPZ_7eu4data7history21load_province_historys_0s_0B7_
FNDA:4,_RNCNvNtCs3CepgdPYNPZ_7eu4data7history21load_province_history0B5_
FNDA:4,_RNCNvNtCs3CepgdPYNPZ_7eu4data7history21load_province_historys_0B5_
FNDA:3,_RNvNtCs1DvYjaJLFM2_7eu4data7history21load_province_history
FNDA:6,_RNCNCNvNtCs1DvYjaJLFM2_7eu4data7history21load_province_historys_00B7_
FNDA:6,_RNCNCNvNtCs1DvYjaJLFM2_7eu4data7history21load_province_historys_0s_0B7_
FNDA:6,_RNCNvNtCs1DvYjaJLFM2_7eu4data7history21load_province_history0B5_
FNDA:6,_RNCNvNtCs1DvYjaJLFM2_7eu4data7history21load_province_historys_0B5_
FNF:6
FNH:6
DA:30,4
DA:31,4
DA:33,4
DA:34,0
DA:35,4
DA:38,4
DA:39,10
DA:40,4
DA:42,4
DA:44,10
DA:45,10
DA:46,10
DA:47,0
DA:48,10
DA:51,10
DA:52,10
DA:55,10
DA:56,10
DA:57,10
DA:59,9
DA:61,9
DA:62,0
DA:63,0
DA:64,0
DA:65,0
DA:66,0
DA:67,0
DA:68,0
DA:69,0
DA:70,0
DA:71,0
DA:72,9
DA:74,9
DA:75,9
DA:77,8
DA:78,10
DA:80,10
DA:81,8
DA:82,8
DA:83,8
DA:84,8
DA:85,2
DA:86,2
DA:87,2
DA:88,10
DA:90,4
DA:91,4
DA:101,1
DA:102,1
DA:103,1
DA:104,1
DA:107,1
DA:108,1
DA:109,1
DA:110,1
DA:111,1
DA:112,1
DA:113,1
DA:114,1
DA:115,1
DA:116,1
DA:118,1
DA:121,1
DA:122,1
DA:124,1
DA:127,1
DA:128,1
DA:131,1
DA:132,1
DA:133,1
DA:135,1
DA:137,1
DA:138,1
DA:140,1
DA:141,1
DA:142,1
DA:143,1
DA:145,1
DA:146,1
DA:147,1
DA:148,1
BRF:0
BRH:0
LF:85
LH:73
end_of_record
SF:C:\Users\atv\Documents\src\eu4rs\eu4data\src\lib.rs
FN:32,_RNvNtCs3CepgdPYNPZ_7eu4data5testss_19test_tradegood_mock
FNDA:1,_RNvNtCs3CepgdPYNPZ_7eu4data5testss_19test_tradegood_mock
FNF:1
FNH:1
DA:32,1
DA:33,1
DA:34,1
DA:35,1
DA:36,1
DA:37,1
DA:38,1
DA:39,1
DA:40,1
DA:41,1
DA:44,1
DA:45,1
DA:46,1
DA:47,1
DA:48,1
DA:49,1
DA:50,1
DA:55,1
DA:56,1
DA:57,1
DA:60,1
DA:61,1
DA:62,1
DA:63,1
BRF:0
BRH:0
LF:24
LH:24
end_of_record
SF:C:\Users\atv\Documents\src\eu4rs\eu4data\src\localisation.rs
FN:51,_RINvMNtCs3CepgdPYNPZ_7eu4data12localisationNtB3_12Localisation13load_from_dirRNtNtCs9V5XLWeEmQj_3std4path4PathEB5_
FN:152,_RINvMNtCs3CepgdPYNPZ_7eu4data12localisationNtB3_12Localisation14list_languagesRNtNtCs9V5XLWeEmQj_3std4path4PathEB5_
FN:71,_RNCINvMNtCs3CepgdPYNPZ_7eu4data12localisationNtB5_12Localisation13load_from_dirRNtNtCs9V5XLWeEmQj_3std4path4PathE0B7_
FN:73,_RNCINvMNtCs3CepgdPYNPZ_7eu4data12localisationNtB5_12Localisation13load_from_dirRNtNtCs9V5XLWeEmQj_3std4path4PathEs0_0B7_
FN:79,_RNCINvMNtCs3CepgdPYNPZ_7eu4data12localisationNtB5_12Localisation13load_from_dirRNtNtCs9V5XLWeEmQj_3std4path4PathEs1_0B7_
FN:72,_RNCINvMNtCs3CepgdPYNPZ_7eu4data12localisationNtB5_12Localisation13load_from_dirRNtNtCs9V5XLWeEmQj_3std4path4PathEs_0B7_
FN:163,_RNCINvMNtCs3CepgdPYNPZ_7eu4data12localisationNtB5_12Localisation14list_languagesRNtNtCs9V5XLWeEmQj_3std4path4PathE0B7_
FN:73,_RNCNCINvMNtCs3CepgdPYNPZ_7eu4data12localisationNtB7_12Localisation13load_from_dirRNtNtCs9V5XLWeEmQj_3std4path4PathEs0_00B9_
FN:92,_RNvMNtCs3CepgdPYNPZ_7eu4data12localisationNtB2_12Localisation10parse_file
FN:37,_RNvMNtCs3CepgdPYNPZ_7eu4data12localisationNtB2_12Localisation3get
FN:25,_RNvMNtCs3CepgdPYNPZ_7eu4data12localisationNtB2_12Localisation3new
FN:32,_RNvMNtCs3CepgdPYNPZ_7eu4data12localisationNtB2_12Localisation6insert
FN:192,_RNvNtNtCs3CepgdPYNPZ_7eu4data12localisation5testss_17test_parse_simple
FN:215,_RNvNtNtCs3CepgdPYNPZ_7eu4data12localisation5testss_18test_load_from_dir
FN:271,_RNvNtNtCs3CepgdPYNPZ_7eu4data12localisation5testss_19test_list_languages
FN:51,_RINvMNtCs1DvYjaJLFM2_7eu4data12localisationNtB3_12Localisation13load_from_dirRNtNtCs9V5XLWeEmQj_3std4path7PathBufECs1JhGRdf2CJD_5eu4rs
FN:152,_RINvMNtCs1DvYjaJLFM2_7eu4data12localisationNtB3_12Localisation14list_languagesRNtNtCs9V5XLWeEmQj_3std4path7PathBufECs1JhGRdf2CJD_5eu4rs
FN:71,_RNCINvMNtCs1DvYjaJLFM2_7eu4data12localisationNtB5_12Localisation13load_from_dirRNtNtCs9V5XLWeEmQj_3std4path7PathBufE0Cs1JhGRdf2CJD_5eu4rs
FN:73,_RNCINvMNtCs1DvYjaJLFM2_7eu4data12localisationNtB5_12Localisation13load_from_dirRNtNtCs9V5XLWeEmQj_3std4path7PathBufEs0_0Cs1JhGRdf2CJD_5eu4rs
FN:79,_RNCINvMNtCs1DvYjaJLFM2_7eu4data12localisationNtB5_12Localisation13load_from_dirRNtNtCs9V5XLWeEmQj_3std4path7PathBufEs1_0Cs1JhGRdf2CJD_5eu4rs
FN:72,_RNCINvMNtCs1DvYjaJLFM2_7eu4data12localisationNtB5_12Localisation13load_from_dirRNtNtCs9V5XLWeEmQj_3std4path7PathBufEs_0Cs1JhGRdf2CJD_5eu4rs
FN:163,_RNCINvMNtCs1DvYjaJLFM2_7eu4data12localisationNtB5_12Localisation14list_languagesRNtNtCs9V5XLWeEmQj_3std4path7PathBufE0Cs1JhGRdf2CJD_5eu4rs
FN:73,_RNCNCINvMNtCs1DvYjaJLFM2_7eu4data12localisationNtB7_12Localisation13load_from_dirRNtNtCs9V5XLWeEmQj_3std4path7PathBufEs0_00Cs1JhGRdf2CJD_5eu4rs
FN:92,_RNvMNtCs1DvYjaJLFM2_7eu4data12localisationNtB2_12Localisation10parse_file
FN:37,_RNvMNtCs1DvYjaJLFM2_7eu4data12localisationNtB2_12Localisation3get
FN:25,_RNvMNtCs1DvYjaJLFM2_7eu4data12localisationNtB2_12Localisation3new
FN:32,_RNvMNtCs1DvYjaJLFM2_7eu4data12localisationNtB2_12Localisation6insert
FN:51,_RINvMNtCs1DvYjaJLFM2_7eu4data12localisationNtB3_12Localisation13load_from_dirRNtNtCs9V5XLWeEmQj_3std4path7PathBufECs7SMMKP1jOwW_5eu4rs
FN:152,_RINvMNtCs1DvYjaJLFM2_7eu4data12localisationNtB3_12Localisation14list_languagesRNtNtCs9V5XLWeEmQj_3std4path7PathBufECs7SMMKP1jOwW_5eu4rs
FN:71,_RNCINvMNtCs1DvYjaJLFM2_7eu4data12localisationNtB5_12Localisation13load_from_dirRNtNtCs9V5XLWeEmQj_3std4path7PathBufE0Cs7SMMKP1jOwW_5eu4rs
FN:73,_RNCINvMNtCs1DvYjaJLFM2_7eu4data12localisationNtB5_12Localisation13load_from_dirRNtNtCs9V5XLWeEmQj_3std4path7PathBufEs0_0Cs7SMMKP1jOwW_5eu4rs
FN:79,_RNCINvMNtCs1DvYjaJLFM2_7eu4data12localisationNtB5_12Localisation13load_from_dirRNtNtCs9V5XLWeEmQj_3std4path7PathBufEs1_0Cs7SMMKP1jOwW_5eu4rs
FN:72,_RNCINvMNtCs1DvYjaJLFM2_7eu4data12localisationNtB5_12Localisation13load_from_dirRNtNtCs9V5XLWeEmQj_3std4path7PathBufEs_0Cs7SMMKP1jOwW_5eu4rs
FN:163,_RNCINvMNtCs1DvYjaJLFM2_7eu4data12localisationNtB5_12Localisation14list_languagesRNtNtCs9V5XLWeEmQj_3std4path7PathBufE0Cs7SMMKP1jOwW_5eu4rs
FN:73,_RNCNCINvMNtCs1DvYjaJLFM2_7eu4data12localisationNtB7_12Localisation13load_from_dirRNtNtCs9V5XLWeEmQj_3std4path7PathBufEs0_00Cs7SMMKP1jOwW_5eu4rs
FNDA:2,_RINvMNtCs3CepgdPYNPZ_7eu4data12localisationNtB3_12Localisation13load_from_dirRNtNtCs9V5XLWeEmQj_3std4path4PathEB5_
FNDA:1,_RINvMNtCs3CepgdPYNPZ_7eu4data12localisationNtB3_12Localisation14list_languagesRNtNtCs9V5XLWeEmQj_3std4path4PathEB5_
FNDA:6,_RNCINvMNtCs3CepgdPYNPZ_7eu4data12localisationNtB5_12Localisation13load_from_dirRNtNtCs9V5XLWeEmQj_3std4path4PathE0B7_
FNDA:6,_RNCINvMNtCs3CepgdPYNPZ_7eu4data12localisationNtB5_12Localisation13load_from_dirRNtNtCs9V5XLWeEmQj_3std4path4PathEs0_0B7_
FNDA:6,_RNCINvMNtCs3CepgdPYNPZ_7eu4data12localisationNtB5_12Localisation13load_from_dirRNtNtCs9V5XLWeEmQj_3std4path4PathEs1_0B7_
FNDA:6,_RNCINvMNtCs3CepgdPYNPZ_7eu4data12localisationNtB5_12Localisation13load_from_dirRNtNtCs9V5XLWeEmQj_3std4path4PathEs_0B7_
FNDA:3,_RNCINvMNtCs3CepgdPYNPZ_7eu4data12localisationNtB5_12Localisation14list_languagesRNtNtCs9V5XLWeEmQj_3std4path4PathE0B7_
FNDA:6,_RNCNCINvMNtCs3CepgdPYNPZ_7eu4data12localisationNtB7_12Localisation13load_from_dirRNtNtCs9V5XLWeEmQj_3std4path4PathEs0_00B9_
FNDA:7,_RNvMNtCs3CepgdPYNPZ_7eu4data12localisationNtB2_12Localisation10parse_file
FNDA:6,_RNvMNtCs3CepgdPYNPZ_7eu4data12localisationNtB2_12Localisation3get
FNDA:3,_RNvMNtCs3CepgdPYNPZ_7eu4data12localisationNtB2_12Localisation3new
FNDA:2,_RNvMNtCs3CepgdPYNPZ_7eu4data12localisationNtB2_12Localisation6insert
FNDA:1,_RNvNtNtCs3CepgdPYNPZ_7eu4data12localisation5testss_17test_parse_simple
FNDA:1,_RNvNtNtCs3CepgdPYNPZ_7eu4data12localisation5testss_18test_load_from_dir
FNDA:1,_RNvNtNtCs3CepgdPYNPZ_7eu4data12localisation5testss_19test_list_languages
FNDA:1,_RINvMNtCs1DvYjaJLFM2_7eu4data12localisationNtB3_12Localisation13load_from_dirRNtNtCs9V5XLWeEmQj_3std4path7PathBufECs1JhGRdf2CJD_5eu4rs
FNDA:0,_RINvMNtCs1DvYjaJLFM2_7eu4data12localisationNtB3_12Localisation14list_languagesRNtNtCs9V5XLWeEmQj_3std4path7PathBufECs1JhGRdf2CJD_5eu4rs
FNDA:0,_RNCINvMNtCs1DvYjaJLFM2_7eu4data12localisationNtB5_12Localisation13load_from_dirRNtNtCs9V5XLWeEmQj_3std4path7PathBufE0Cs1JhGRdf2CJD_5eu4rs
FNDA:0,_RNCINvMNtCs1DvYjaJLFM2_7eu4data12localisationNtB5_12Localisation13load_from_dirRNtNtCs9V5XLWeEmQj_3std4path7PathBufEs0_0Cs1JhGRdf2CJD_5eu4rs
FNDA:0,_RNCINvMNtCs1DvYjaJLFM2_7eu4data12localisationNtB5_12Localisation13load_from_dirRNtNtCs9V5XLWeEmQj_3std4path7PathBufEs1_0Cs1JhGRdf2CJD_5eu4rs
FNDA:0,_RNCINvMNtCs1DvYjaJLFM2_7eu4data12localisationNtB5_12Localisation13load_from_dirRNtNtCs9V5XLWeEmQj_3std4path7PathBufEs_0Cs1JhGRdf2CJD_5eu4rs
FNDA:0,_RNCINvMNtCs1DvYjaJLFM2_7eu4data12localisationNtB5_12Localisation14list_languagesRNtNtCs9V5XLWeEmQj_3std4path7PathBufE0Cs1JhGRdf2CJD_5eu4rs
FNDA:0,_RNCNCINvMNtCs1DvYjaJLFM2_7eu4data12localisationNtB7_12Localisation13load_from_dirRNtNtCs9V5XLWeEmQj_3std4path7PathBufEs0_00Cs1JhGRdf2CJD_5eu4rs
FNDA:0,_RNvMNtCs1DvYjaJLFM2_7eu4data12localisationNtB2_12Localisation10parse_file
FNDA:1,_RNvMNtCs1DvYjaJLFM2_7eu4data12localisationNtB2_12Localisation3get
FNDA:1,_RNvMNtCs1DvYjaJLFM2_7eu4data12localisationNtB2_12Localisation3new
FNDA:0,_RNvMNtCs1DvYjaJLFM2_7eu4data12localisationNtB2_12Localisation6insert
FNDA:0,_RINvMNtCs1DvYjaJLFM2_7eu4data12localisationNtB3_12Localisation13load_from_dirRNtNtCs9V5XLWeEmQj_3std4path7PathBufECs7SMMKP1jOwW_5eu4rs
FNDA:0,_RINvMNtCs1DvYjaJLFM2_7eu4data12localisationNtB3_12Localisation14list_languagesRNtNtCs9V5XLWeEmQj_3std4path7PathBufECs7SMMKP1jOwW_5eu4rs
FNDA:0,_RNCINvMNtCs1DvYjaJLFM2_7eu4data12localisationNtB5_12Localisation13load_from_dirRNtNtCs9V5XLWeEmQj_3std4path7PathBufE0Cs7SMMKP1jOwW_5eu4rs
FNDA:0,_RNCINvMNtCs1DvYjaJLFM2_7eu4data12localisationNtB5_12Localisation13load_from_dirRNtNtCs9V5XLWeEmQj_3std4path7PathBufEs0_0Cs7SMMKP1jOwW_5eu4rs
FNDA:0,_RNCINvMNtCs1DvYjaJLFM2_7eu4data12localisationNtB5_12Localisation13load_from_dirRNtNtCs9V5XLWeEmQj_3std4path7PathBufEs1_0Cs7SMMKP1jOwW_5eu4rs
FNDA:0,_RNCINvMNtCs1DvYjaJLFM2_7eu4data12localisationNtB5_12Localisation13load_from_dirRNtNtCs9V5XLWeEmQj_3std4path7PathBufEs_0Cs7SMMKP1jOwW_5eu4rs
FNDA:0,_RNCINvMNtCs1DvYjaJLFM2_7eu4data12localisationNtB5_12Localisation14list_languagesRNtNtCs9V5XLWeEmQj_3std4path7PathBufE0Cs7SMMKP1jOwW_5eu4rs
FNDA:0,_RNCNCINvMNtCs1DvYjaJLFM2_7eu4data12localisationNtB7_12Localisation13load_from_dirRNtNtCs9V5XLWeEmQj_3std4path7PathBufEs0_00Cs7SMMKP1jOwW_5eu4rs
FNF:15
FNH:15
DA:25,4
DA:26,4
DA:27,4
DA:28,4
DA:29,4
DA:32,2
DA:33,2
DA:34,2
DA:37,7
DA:38,7
DA:39,7
DA:51,3
DA:52,3
DA:53,3
DA:54,3
DA:55,3
DA:56,3
DA:57,3
DA:58,3
DA:59,1
DA:60,2
DA:65,2
DA:66,2
DA:70,2
DA:71,6
DA:72,6
DA:73,6
DA:74,2
DA:77,2
DA:78,2
DA:79,6
DA:80,2
DA:82,8
DA:83,8
DA:84,2
DA:85,2
DA:86,2
DA:88,2
DA:89,3
DA:92,7
DA:93,7
DA:96,7
DA:98,7
DA:99,7
DA:101,22
DA:102,22
DA:104,22
DA:106,22
DA:107,10
DA:108,12
DA:112,12
DA:113,12
DA:115,7
DA:116,3
DA:117,3
DA:119,4
DA:121,3
DA:122,5
DA:125,5
DA:126,0
DA:127,0
DA:128,0
DA:129,0
DA:130,5
DA:133,5
DA:134,4
DA:137,4
DA:138,4
DA:139,4
DA:140,4
DA:141,4
DA:142,4
DA:143,1
DA:145,3
DA:146,7
DA:152,1
DA:153,1
DA:154,1
DA:156,1
DA:157,0
DA:158,1
DA:160,3
DA:161,3
DA:162,3
DA:163,3
DA:164,2
DA:166,2
DA:168,2
DA:169,2
DA:170,2
DA:171,2
DA:173,2
DA:174,2
DA:175,2
DA:176,0
DA:178,1
DA:180,1
DA:181,1
DA:182,1
DA:183,1
DA:192,1
DA:193,1
DA:194,1
DA:195,1
DA:196,1
DA:197,1
DA:198,1
DA:200,1
DA:201,1
DA:203,1
DA:204,1
DA:205,3
DA:206,2
DA:207,2
DA:209,1
DA:210,1
DA:211,1
DA:212,1
DA:215,1
DA:216,1
DA:219,1
DA:220,1
DA:221,1
DA:222,1
DA:223,1
DA:224,1
DA:225,1
DA:226,1
DA:228,1
DA:231,1
DA:232,1
DA:233,1
DA:234,1
DA:235,1
DA:236,1
DA:237,1
DA:238,1
DA:240,1
DA:243,1
DA:244,1
DA:245,1
DA:246,1
DA:247,1
DA:248,1
DA:249,1
DA:250,1
DA:252,1
DA:255,1
DA:256,1
DA:258,1
DA:259,1
DA:260,1
DA:263,1
DA:264,1
DA:266,1
DA:267,1
DA:268,1
DA:271,1
DA:272,1
DA:275,1
DA:276,1
DA:277,1
DA:280,1
DA:281,1
DA:282,1
DA:285,1
DA:286,1
DA:287,1
DA:289,1
DA:290,1
DA:291,1
BRF:0
BRH:0
LF:177
LH:170
end_of_record
SF:C:\Users\atv\Documents\src\eu4rs\eu4data\src\map.rs
FN:24,_RNvNtCs3CepgdPYNPZ_7eu4data3map16load_definitions
FN:70,_RNvNtNtCs3CepgdPYNPZ_7eu4data3map5testss_21test_load_definitions
FN:89,_RNvNtNtCs3CepgdPYNPZ_7eu4data3map5testss_28test_load_definitions_broken
FN:24,_RNvNtCs1DvYjaJLFM2_7eu4data3map16load_definitions
FNDA:2,_RNvNtCs3CepgdPYNPZ_7eu4data3map16load_definitions
FNDA:1,_RNvNtNtCs3CepgdPYNPZ_7eu4data3map5testss_21test_load_definitions
FNDA:1,_RNvNtNtCs3CepgdPYNPZ_7eu4data3map5testss_28test_load_definitions_broken
FNDA:4,_RNvNtCs1DvYjaJLFM2_7eu4data3map16load_definitions
FNF:3
FNH:3
DA:24,6
DA:25,6
DA:26,6
DA:27,6
DA:28,6
DA:29,6
DA:30,6
DA:31,6
DA:32,6
DA:34,6
DA:35,21
DA:39,21
DA:40,16
DA:41,16
DA:42,16
DA:43,16
DA:46,5
DA:50,6
DA:51,6
DA:70,1
DA:71,1
DA:72,1
DA:73,1
DA:74,1
DA:76,1
DA:77,1
DA:79,1
DA:80,1
DA:81,1
DA:83,1
DA:84,1
DA:85,1
DA:86,1
DA:89,1
DA:91,1
DA:92,1
DA:93,1
DA:94,1
DA:99,1
DA:101,1
DA:102,1
DA:103,1
BRF:0
BRH:0
LF:42
LH:42
end_of_record
SF:C:\Users\atv\Documents\src\eu4rs\eu4rs\src\camera.rs
FN:137,_RNvMNtCs1JhGRdf2CJD_5eu4rs6cameraNtB2_6Camera15screen_to_world
FN:167,_RNvMNtCs1JhGRdf2CJD_5eu4rs6cameraNtB2_6Camera15to_uniform_data
FN:12,_RNvMNtCs1JhGRdf2CJD_5eu4rs6cameraNtB2_6Camera3new
FN:21,_RNvMNtCs1JhGRdf2CJD_5eu4rs6cameraNtB2_6Camera3pan
FN:68,_RNvMNtCs1JhGRdf2CJD_5eu4rs6cameraNtB2_6Camera4zoom
FN:213,_RNvNtNtCs1JhGRdf2CJD_5eu4rs6camera5testss_12test_zoom_in
FN:224,_RNvNtNtCs1JhGRdf2CJD_5eu4rs6camera5testss_15test_zoom_pivot
FN:198,_RNvNtNtCs1JhGRdf2CJD_5eu4rs6camera5testss_17test_aspect_ratio
FN:256,_RNvNtNtCs1JhGRdf2CJD_5eu4rs6camera5testss_17test_pan_wrapping
FN:190,_RNvNtNtCs1JhGRdf2CJD_5eu4rs6camera5testss_27test_screen_to_world_center
FN:137,_RNvMNtCs7SMMKP1jOwW_5eu4rs6cameraNtB2_6Camera15screen_to_world
FN:167,_RNvMNtCs7SMMKP1jOwW_5eu4rs6cameraNtB2_6Camera15to_uniform_data
FN:12,_RNvMNtCs7SMMKP1jOwW_5eu4rs6cameraNtB2_6Camera3new
FN:21,_RNvMNtCs7SMMKP1jOwW_5eu4rs6cameraNtB2_6Camera3pan
FN:68,_RNvMNtCs7SMMKP1jOwW_5eu4rs6cameraNtB2_6Camera4zoom
FNDA:10,_RNvMNtCs1JhGRdf2CJD_5eu4rs6cameraNtB2_6Camera15screen_to_world
FNDA:0,_RNvMNtCs1JhGRdf2CJD_5eu4rs6cameraNtB2_6Camera15to_uniform_data
FNDA:6,_RNvMNtCs1JhGRdf2CJD_5eu4rs6cameraNtB2_6Camera3new
FNDA:2,_RNvMNtCs1JhGRdf2CJD_5eu4rs6cameraNtB2_6Camera3pan
FNDA:2,_RNvMNtCs1JhGRdf2CJD_5eu4rs6cameraNtB2_6Camera4zoom
FNDA:1,_RNvNtNtCs1JhGRdf2CJD_5eu4rs6camera5testss_12test_zoom_in
FNDA:1,_RNvNtNtCs1JhGRdf2CJD_5eu4rs6camera5testss_15test_zoom_pivot
FNDA:1,_RNvNtNtCs1JhGRdf2CJD_5eu4rs6camera5testss_17test_aspect_ratio
FNDA:1,_RNvNtNtCs1JhGRdf2CJD_5eu4rs6camera5testss_17test_pan_wrapping
FNDA:1,_RNvNtNtCs1JhGRdf2CJD_5eu4rs6camera5testss_27test_screen_to_world_center
FNDA:0,_RNvMNtCs7SMMKP1jOwW_5eu4rs6cameraNtB2_6Camera15screen_to_world
FNDA:0,_RNvMNtCs7SMMKP1jOwW_5eu4rs6cameraNtB2_6Camera15to_uniform_data
FNDA:0,_RNvMNtCs7SMMKP1jOwW_5eu4rs6cameraNtB2_6Camera3new
FNDA:0,_RNvMNtCs7SMMKP1jOwW_5eu4rs6cameraNtB2_6Camera3pan
FNDA:0,_RNvMNtCs7SMMKP1jOwW_5eu4rs6cameraNtB2_6Camera4zoom
FNF:10
FNH:9
DA:12,6
DA:13,6
DA:14,6
DA:15,6
DA:16,6
DA:17,6
DA:18,6
DA:21,2
DA:25,2
DA:26,0
DA:27,2
DA:31,2
DA:33,2
DA:34,2
DA:36,2
DA:37,2
DA:41,2
DA:42,2
DA:45,2
DA:53,2
DA:54,2
DA:55,2
DA:60,2
DA:61,0
DA:62,2
DA:63,2
DA:64,2
DA:65,2
DA:68,2
DA:69,2
DA:70,2
DA:71,2
DA:72,2
DA:73,2
DA:74,2
DA:75,2
DA:82,2
DA:83,0
DA:84,2
DA:94,2
DA:95,2
DA:96,2
DA:98,2
DA:100,2
DA:104,2
DA:107,2
DA:108,2
DA:112,2
DA:113,2
DA:116,2
DA:117,2
DA:119,2
DA:120,2
DA:122,2
DA:125,2
DA:126,2
DA:127,2
DA:129,2
DA:130,0
DA:131,2
DA:132,2
DA:133,2
DA:134,2
DA:137,10
DA:138,10
DA:139,10
DA:140,10
DA:141,10
DA:142,10
DA:143,10
DA:144,10
DA:145,0
DA:146,10
DA:148,10
DA:149,10
DA:150,10
DA:152,10
DA:153,10
DA:158,10
DA:159,10
DA:161,10
DA:162,10
DA:167,0
DA:168,0
DA:169,0
DA:170,0
DA:171,0
DA:173,0
DA:174,0
DA:176,0
DA:177,0
DA:178,0
DA:179,0
DA:180,0
DA:181,0
DA:182,0
DA:190,1
DA:191,1
DA:192,1
DA:193,1
DA:194,1
DA:195,1
DA:198,1
DA:204,1
DA:205,1
DA:206,1
DA:208,1
DA:209,1
DA:210,1
DA:213,1
DA:214,1
DA:216,1
DA:219,1
DA:220,1
DA:221,1
DA:224,1
DA:225,1
DA:227,1
DA:228,1
DA:229,1
DA:230,1
DA:233,1
DA:236,1
DA:237,1
DA:238,1
DA:239,0
DA:248,1
DA:249,1
DA:250,0
DA:253,1
DA:256,1
DA:257,1
DA:261,1
DA:262,1
DA:266,1
DA:268,1
DA:269,1
BRF:0
BRH:0
LF:137
LH:116
end_of_record
SF:C:\Users\atv\Documents\src\eu4rs\eu4rs\src\main.rs
FN:118,_RNvCs1JhGRdf2CJD_5eu4rs4main
FN:130,_RNvNtCs1JhGRdf2CJD_5eu4rs5testss_27test_pretty_print_dir_logic
FN:174,_RNvNtCs1JhGRdf2CJD_5eu4rs5testss_28test_run_lookup_missing_path
FN:149,_RNvNtCs1JhGRdf2CJD_5eu4rs5testss_29test_dump_tradegoods_dispatch
FN:191,_RNvNtCs1JhGRdf2CJD_5eu4rs5testss_29test_pretty_print_missing_dir
FN:15,_RNvCs1JhGRdf2CJD_5eu4rs3run
FN:15,_RNvCs7SMMKP1jOwW_5eu4rs3run
FN:118,_RNvCs7SMMKP1jOwW_5eu4rs4main
FNDA:0,_RNvCs1JhGRdf2CJD_5eu4rs4main
FNDA:1,_RNvNtCs1JhGRdf2CJD_5eu4rs5testss_27test_pretty_print_dir_logic
FNDA:1,_RNvNtCs1JhGRdf2CJD_5eu4rs5testss_28test_run_lookup_missing_path
FNDA:1,_RNvNtCs1JhGRdf2CJD_5eu4rs5testss_29test_dump_tradegoods_dispatch
FNDA:1,_RNvNtCs1JhGRdf2CJD_5eu4rs5testss_29test_pretty_print_missing_dir
FNDA:3,_RNvCs1JhGRdf2CJD_5eu4rs3run
FNDA:2,_RNvCs7SMMKP1jOwW_5eu4rs3run
FNDA:2,_RNvCs7SMMKP1jOwW_5eu4rs4main
FNF:6
FNH:6
DA:15,5
DA:16,5
DA:17,3
DA:19,2
DA:20,2
DA:22,0
DA:23,0
DA:24,0
DA:26,0
DA:27,0
DA:28,0
DA:29,0
DA:30,0
DA:31,0
DA:33,0
DA:34,0
DA:35,0
DA:36,0
DA:37,0
DA:38,0
DA:41,0
DA:44,0
DA:46,0
DA:47,0
DA:48,0
DA:49,0
DA:50,0
DA:52,0
DA:53,0
DA:54,0
DA:55,0
DA:57,1
DA:58,1
DA:59,1
DA:60,1
DA:61,1
DA:64,1
DA:65,1
DA:66,0
DA:69,1
DA:70,0
DA:71,1
DA:73,1
DA:76,0
DA:77,0
DA:78,0
DA:79,0
DA:80,0
DA:81,0
DA:82,0
DA:84,0
DA:86,0
DA:89,2
DA:92,2
DA:93,2
DA:94,2
DA:95,2
DA:96,2
DA:97,2
DA:98,2
DA:99,2
DA:100,2
DA:101,2
DA:102,2
DA:103,2
DA:104,0
DA:105,0
DA:106,0
DA:110,0
DA:111,0
DA:112,0
DA:115,2
DA:116,5
DA:118,2
DA:119,2
DA:120,2
DA:130,1
DA:131,1
DA:132,1
DA:133,1
DA:134,1
DA:136,1
DA:137,1
DA:138,1
DA:140,1
DA:142,1
DA:143,1
DA:144,1
DA:145,1
DA:146,1
DA:149,1
DA:150,1
DA:155,1
DA:156,1
DA:158,1
DA:159,1
DA:160,1
DA:162,1
DA:163,1
DA:164,1
DA:165,1
DA:166,1
DA:167,1
DA:169,1
DA:170,1
DA:171,1
DA:174,1
DA:175,1
DA:177,1
DA:178,1
DA:179,1
DA:180,1
DA:181,1
DA:182,1
DA:183,1
DA:184,1
DA:187,1
DA:188,1
DA:191,1
DA:192,1
DA:193,1
DA:194,1
DA:195,1
DA:196,1
DA:197,1
DA:198,1
DA:199,1
DA:201,1
DA:202,1
BRF:0
BRH:0
LF:129
LH:86
end_of_record
SF:C:\Users\atv\Documents\src\eu4rs\eu4rs\src\ops.rs
FN:12,_RNvNtCs1JhGRdf2CJD_5eu4rs3ops15dump_tradegoods
FN:199,_RNvNtCs1JhGRdf2CJD_5eu4rs3ops15load_world_data
FN:149,_RNvNtCs1JhGRdf2CJD_5eu4rs3ops16pretty_print_dir
FN:26,_RNvNtCs1JhGRdf2CJD_5eu4rs3ops8draw_map
FN:16,_RNCNvNtCs1JhGRdf2CJD_5eu4rs3ops15dump_tradegoods0B5_
FN:21,_RNCNvNtCs1JhGRdf2CJD_5eu4rs3ops15dump_tradegoodss_0B5_
FN:204,_RNCNvNtCs1JhGRdf2CJD_5eu4rs3ops15load_world_data0B5_
FN:217,_RNCNvNtCs1JhGRdf2CJD_5eu4rs3ops15load_world_datas0_0B5_
FN:212,_RNCNvNtCs1JhGRdf2CJD_5eu4rs3ops15load_world_datas_0B5_
FN:167,_RNCNvNtCs1JhGRdf2CJD_5eu4rs3ops16pretty_print_dir0B5_
FN:30,_RNCNvNtCs1JhGRdf2CJD_5eu4rs3ops8draw_map0B5_
FN:64,_RNCNvNtCs1JhGRdf2CJD_5eu4rs3ops8draw_maps0_0B5_
FN:70,_RNCNvNtCs1JhGRdf2CJD_5eu4rs3ops8draw_maps1_0B5_
FN:81,_RNCNvNtCs1JhGRdf2CJD_5eu4rs3ops8draw_maps2_0B5_
FN:91,_RNCNvNtCs1JhGRdf2CJD_5eu4rs3ops8draw_maps3_0B5_
FN:109,_RNCNvNtCs1JhGRdf2CJD_5eu4rs3ops8draw_maps4_0B5_
FN:110,_RNCNvNtCs1JhGRdf2CJD_5eu4rs3ops8draw_maps5_0B5_
FN:122,_RNCNvNtCs1JhGRdf2CJD_5eu4rs3ops8draw_maps6_0B5_
FN:123,_RNCNvNtCs1JhGRdf2CJD_5eu4rs3ops8draw_maps7_0B5_
FN:137,_RNCNvNtCs1JhGRdf2CJD_5eu4rs3ops8draw_maps8_0B5_
FN:42,_RNCNvNtCs1JhGRdf2CJD_5eu4rs3ops8draw_maps_0B5_
FN:233,_RNvNtNtCs1JhGRdf2CJD_5eu4rs3ops5tests15create_mock_eu4
FN:302,_RNvNtNtCs1JhGRdf2CJD_5eu4rs3ops5testss_20test_dump_tradegoods
FN:311,_RNvNtNtCs1JhGRdf2CJD_5eu4rs3ops5testss_20test_load_world_data
FN:339,_RNvNtNtCs1JhGRdf2CJD_5eu4rs3ops5testss_23test_draw_map_political
FN:355,_RNvNtNtCs1JhGRdf2CJD_5eu4rs3ops5testss_24test_draw_map_all_panics
FN:322,_RNvNtNtCs1JhGRdf2CJD_5eu4rs3ops5testss_24test_draw_map_tradegoods
FN:360,_RNCNvNtNtCs1JhGRdf2CJD_5eu4rs3ops5testss_24test_draw_map_all_panics0B7_
FN:16,_RNCNvNtCs7SMMKP1jOwW_5eu4rs3ops15dump_tradegoods0B5_
FN:21,_RNCNvNtCs7SMMKP1jOwW_5eu4rs3ops15dump_tradegoodss_0B5_
FN:204,_RNCNvNtCs7SMMKP1jOwW_5eu4rs3ops15load_world_data0B5_
FN:217,_RNCNvNtCs7SMMKP1jOwW_5eu4rs3ops15load_world_datas0_0B5_
FN:212,_RNCNvNtCs7SMMKP1jOwW_5eu4rs3ops15load_world_datas_0B5_
FN:167,_RNCNvNtCs7SMMKP1jOwW_5eu4rs3ops16pretty_print_dir0B5_
FN:30,_RNCNvNtCs7SMMKP1jOwW_5eu4rs3ops8draw_map0B5_
FN:64,_RNCNvNtCs7SMMKP1jOwW_5eu4rs3ops8draw_maps0_0B5_
FN:70,_RNCNvNtCs7SMMKP1jOwW_5eu4rs3ops8draw_maps1_0B5_
FN:81,_RNCNvNtCs7SMMKP1jOwW_5eu4rs3ops8draw_maps2_0B5_
FN:91,_RNCNvNtCs7SMMKP1jOwW_5eu4rs3ops8draw_maps3_0B5_
FN:109,_RNCNvNtCs7SMMKP1jOwW_5eu4rs3ops8draw_maps4_0B5_
FN:110,_RNCNvNtCs7SMMKP1jOwW_5eu4rs3ops8draw_maps5_0B5_
FN:122,_RNCNvNtCs7SMMKP1jOwW_5eu4rs3ops8draw_maps6_0B5_
FN:123,_RNCNvNtCs7SMMKP1jOwW_5eu4rs3ops8draw_maps7_0B5_
FN:137,_RNCNvNtCs7SMMKP1jOwW_5eu4rs3ops8draw_maps8_0B5_
FN:42,_RNCNvNtCs7SMMKP1jOwW_5eu4rs3ops8draw_maps_0B5_
FN:12,_RNvNtCs7SMMKP1jOwW_5eu4rs3ops15dump_tradegoods
FN:199,_RNvNtCs7SMMKP1jOwW_5eu4rs3ops15load_world_data
FN:149,_RNvNtCs7SMMKP1jOwW_5eu4rs3ops16pretty_print_dir
FN:26,_RNvNtCs7SMMKP1jOwW_5eu4rs3ops8draw_map
FNDA:2,_RNvNtCs1JhGRdf2CJD_5eu4rs3ops15dump_tradegoods
FNDA:1,_RNvNtCs1JhGRdf2CJD_5eu4rs3ops15load_world_data
FNDA:2,_RNvNtCs1JhGRdf2CJD_5eu4rs3ops16pretty_print_dir
FNDA:3,_RNvNtCs1JhGRdf2CJD_5eu4rs3ops8draw_map
FNDA:0,_RNCNvNtCs1JhGRdf2CJD_5eu4rs3ops15dump_tradegoods0B5_
FNDA:0,_RNCNvNtCs1JhGRdf2CJD_5eu4rs3ops15dump_tradegoodss_0B5_
FNDA:0,_RNCNvNtCs1JhGRdf2CJD_5eu4rs3ops15load_world_data0B5_
FNDA:0,_RNCNvNtCs1JhGRdf2CJD_5eu4rs3ops15load_world_datas0_0B5_
FNDA:0,_RNCNvNtCs1JhGRdf2CJD_5eu4rs3ops15load_world_datas_0B5_
FNDA:2,_RNCNvNtCs1JhGRdf2CJD_5eu4rs3ops16pretty_print_dir0B5_
FNDA:0,_RNCNvNtCs1JhGRdf2CJD_5eu4rs3ops8draw_map0B5_
FNDA:0,_RNCNvNtCs1JhGRdf2CJD_5eu4rs3ops8draw_maps0_0B5_
FNDA:0,_RNCNvNtCs1JhGRdf2CJD_5eu4rs3ops8draw_maps1_0B5_
FNDA:0,_RNCNvNtCs1JhGRdf2CJD_5eu4rs3ops8draw_maps2_0B5_
FNDA:0,_RNCNvNtCs1JhGRdf2CJD_5eu4rs3ops8draw_maps3_0B5_
FNDA:1,_RNCNvNtCs1JhGRdf2CJD_5eu4rs3ops8draw_maps4_0B5_
FNDA:1,_RNCNvNtCs1JhGRdf2CJD_5eu4rs3ops8draw_maps5_0B5_
FNDA:2,_RNCNvNtCs1JhGRdf2CJD_5eu4rs3ops8draw_maps6_0B5_
FNDA:2,_RNCNvNtCs1JhGRdf2CJD_5eu4rs3ops8draw_maps7_0B5_
FNDA:0,_RNCNvNtCs1JhGRdf2CJD_5eu4rs3ops8draw_maps8_0B5_
FNDA:0,_RNCNvNtCs1JhGRdf2CJD_5eu4rs3ops8draw_maps_0B5_
FNDA:5,_RNvNtNtCs1JhGRdf2CJD_5eu4rs3ops5tests15create_mock_eu4
FNDA:1,_RNvNtNtCs1JhGRdf2CJD_5eu4rs3ops5testss_20test_dump_tradegoods
FNDA:1,_RNvNtNtCs1JhGRdf2CJD_5eu4rs3ops5testss_20test_load_world_data
FNDA:1,_RNvNtNtCs1JhGRdf2CJD_5eu4rs3ops5testss_23test_draw_map_political
FNDA:1,_RNvNtNtCs1JhGRdf2CJD_5eu4rs3ops5testss_24test_draw_map_all_panics
FNDA:1,_RNvNtNtCs1JhGRdf2CJD_5eu4rs3ops5testss_24test_draw_map_tradegoods
FNDA:1,_RNCNvNtNtCs1JhGRdf2CJD_5eu4rs3ops5testss_24test_draw_map_all_panics0B7_
FNDA:0,_RNCNvNtCs7SMMKP1jOwW_5eu4rs3ops15dump_tradegoods0B5_
FNDA:0,_RNCNvNtCs7SMMKP1jOwW_5eu4rs3ops15dump_tradegoodss_0B5_
FNDA:0,_RNCNvNtCs7SMMKP1jOwW_5eu4rs3ops15load_world_data0B5_
FNDA:0,_RNCNvNtCs7SMMKP1jOwW_5eu4rs3ops15load_world_datas0_0B5_
FNDA:0,_RNCNvNtCs7SMMKP1jOwW_5eu4rs3ops15load_world_datas_0B5_
FNDA:1,_RNCNvNtCs7SMMKP1jOwW_5eu4rs3ops16pretty_print_dir0B5_
FNDA:0,_RNCNvNtCs7SMMKP1jOwW_5eu4rs3ops8draw_map0B5_
FNDA:0,_RNCNvNtCs7SMMKP1jOwW_5eu4rs3ops8draw_maps0_0B5_
FNDA:0,_RNCNvNtCs7SMMKP1jOwW_5eu4rs3ops8draw_maps1_0B5_
FNDA:0,_RNCNvNtCs7SMMKP1jOwW_5eu4rs3ops8draw_maps2_0B5_
FNDA:0,_RNCNvNtCs7SMMKP1jOwW_5eu4rs3ops8draw_maps3_0B5_
FNDA:0,_RNCNvNtCs7SMMKP1jOwW_5eu4rs3ops8draw_maps4_0B5_
FNDA:0,_RNCNvNtCs7SMMKP1jOwW_5eu4rs3ops8draw_maps5_0B5_
FNDA:0,_RNCNvNtCs7SMMKP1jOwW_5eu4rs3ops8draw_maps6_0B5_
FNDA:0,_RNCNvNtCs7SMMKP1jOwW_5eu4rs3ops8draw_maps7_0B5_
FNDA:0,_RNCNvNtCs7SMMKP1jOwW_5eu4rs3ops8draw_maps8_0B5_
FNDA:0,_RNCNvNtCs7SMMKP1jOwW_5eu4rs3ops8draw_maps_0B5_
FNDA:1,_RNvNtCs7SMMKP1jOwW_5eu4rs3ops15dump_tradegoods
FNDA:0,_RNvNtCs7SMMKP1jOwW_5eu4rs3ops15load_world_data
FNDA:1,_RNvNtCs7SMMKP1jOwW_5eu4rs3ops16pretty_print_dir
FNDA:0,_RNvNtCs7SMMKP1jOwW_5eu4rs3ops8draw_map
FNF:28
FNH:16
DA:12,3
DA:13,3
DA:14,3
DA:16,3
DA:17,3
DA:18,3
DA:19,3
DA:20,3
DA:21,3
DA:23,3
DA:24,3
DA:26,3
DA:28,3
DA:29,3
DA:30,3
DA:33,3
DA:34,12
DA:35,9
DA:36,9
DA:39,3
DA:40,3
DA:41,3
DA:42,3
DA:43,3
DA:44,3
DA:46,3
DA:47,6
DA:48,3
DA:49,3
DA:50,3
DA:51,0
DA:52,0
DA:53,3
DA:56,3
DA:57,3
DA:59,3
DA:61,1
DA:62,1
DA:63,1
DA:64,1
DA:65,1
DA:66,1
DA:69,1
DA:70,1
DA:71,1
DA:72,1
DA:73,1
DA:75,1
DA:79,2
DA:80,2
DA:81,2
DA:83,2
DA:84,2
DA:89,2
DA:90,2
DA:91,2
DA:92,2
DA:93,2
DA:95,2
DA:96,8
DA:97,8
DA:98,8
DA:99,6
DA:101,6
DA:102,2
DA:103,4
DA:104,4
DA:106,2
DA:107,2
DA:108,2
DA:109,2
DA:110,2
DA:111,1
DA:112,1
DA:113,1
DA:114,1
DA:115,1
DA:116,1
DA:119,2
DA:120,2
DA:121,2
DA:122,2
DA:123,2
DA:124,2
DA:125,2
DA:126,2
DA:128,0
DA:130,0
DA:131,6
DA:132,2
DA:133,2
DA:134,2
DA:137,2
DA:138,2
DA:139,2
DA:140,2
DA:149,3
DA:150,3
DA:151,3
DA:152,3
DA:153,3
DA:154,3
DA:155,3
DA:156,3
DA:157,3
DA:158,3
DA:159,3
DA:160,3
DA:162,0
DA:163,0
DA:164,0
DA:165,0
DA:166,0
DA:167,3
DA:169,3
DA:170,3
DA:173,0
DA:177,3
DA:178,2
DA:179,2
DA:180,2
DA:181,2
DA:182,2
DA:183,1
DA:184,1
DA:186,1
DA:187,1
DA:188,1
DA:189,1
DA:190,1
DA:193,0
DA:195,1
DA:196,3
DA:197,3
DA:199,1
DA:200,1
DA:203,1
DA:204,1
DA:205,1
DA:206,4
DA:207,3
DA:208,3
DA:211,1
DA:212,1
DA:215,1
DA:216,1
DA:217,1
DA:219,1
DA:220,1
DA:221,1
DA:222,1
DA:223,1
DA:224,1
DA:233,5
DA:235,5
DA:236,5
DA:237,5
DA:238,5
DA:239,5
DA:240,5
DA:242,5
DA:243,5
DA:244,5
DA:245,5
DA:246,5
DA:252,5
DA:253,5
DA:254,5
DA:255,5
DA:256,5
DA:259,5
DA:260,5
DA:261,5
DA:265,5
DA:266,5
DA:267,5
DA:268,5
DA:269,5
DA:270,5
DA:273,5
DA:274,5
DA:275,5
DA:276,5
DA:277,5
DA:278,5
DA:279,5
DA:280,5
DA:282,5
DA:285,5
DA:286,5
DA:287,5
DA:290,5
DA:291,5
DA:294,5
DA:295,5
DA:297,5
DA:298,5
DA:299,5
DA:302,1
DA:303,1
DA:304,1
DA:306,1
DA:307,1
DA:308,1
DA:311,1
DA:312,1
DA:313,1
DA:316,1
DA:317,1
DA:318,1
DA:319,1
DA:322,1
DA:323,1
DA:324,1
DA:326,1
DA:327,1
DA:328,1
DA:329,1
DA:331,1
DA:333,1
DA:335,1
DA:336,1
DA:339,1
DA:340,1
DA:341,1
DA:343,1
DA:344,1
DA:346,1
DA:347,1
DA:349,1
DA:351,1
DA:352,1
DA:355,1
DA:356,1
DA:357,1
DA:358,1
DA:360,1
DA:361,1
DA:362,1
DA:363,1
DA:364,1
BRF:0
BRH:0
LF:259
LH:235
end_of_record
SF:C:\Users\atv\Documents\src\eu4rs\eu4rs\src\testing.rs
FN:83,_RNCNvNtNtCs1JhGRdf2CJD_5eu4rs7testing5testss_26test_assert_snapshot_match0B7_
FN:61,_RNvNtNtCs1JhGRdf2CJD_5eu4rs7testing5testss_26test_assert_snapshot_match
FN:4,_RNvNtCs1JhGRdf2CJD_5eu4rs7testing15assert_snapshot
FN:10,_RNvNtCs1JhGRdf2CJD_5eu4rs7testing18assert_snapshot_at
FNDA:1,_RNCNvNtNtCs1JhGRdf2CJD_5eu4rs7testing5testss_26test_assert_snapshot_match0B7_
FNDA:1,_RNvNtNtCs1JhGRdf2CJD_5eu4rs7testing5testss_26test_assert_snapshot_match
FNDA:3,_RNvNtCs1JhGRdf2CJD_5eu4rs7testing15assert_snapshot
FNDA:6,_RNvNtCs1JhGRdf2CJD_5eu4rs7testing18assert_snapshot_at
FNF:4
FNH:4
DA:4,3
DA:5,3
DA:6,3
DA:7,3
DA:8,3
DA:10,6
DA:11,6
DA:13,6
DA:14,6
DA:16,6
DA:17,1
DA:18,1
DA:19,1
DA:20,1
DA:21,1
DA:22,5
DA:24,5
DA:25,5
DA:26,5
DA:28,5
DA:29,0
DA:30,0
DA:31,0
DA:32,0
DA:34,5
DA:36,5
DA:37,11734344
DA:38,11734344
DA:39,11734344
DA:40,1
DA:41,11734343
DA:44,5
DA:46,1
DA:47,1
DA:48,1
DA:49,1
DA:52,4
DA:53,5
DA:61,1
DA:62,1
DA:63,1
DA:66,1
DA:67,4
DA:68,4
DA:69,4
DA:72,1
DA:73,1
DA:74,1
DA:77,1
DA:80,1
DA:81,1
DA:83,1
DA:84,1
DA:85,1
DA:86,1
DA:89,1
DA:90,1
DA:91,1
DA:92,0
DA:94,1
BRF:0
BRH:0
LF:61
LH:56
end_of_record
SF:C:\Users\atv\Documents\src\eu4rs\eu4rs\src\text.rs
FN:9,_RNvMNtCs1JhGRdf2CJD_5eu4rs4textNtB2_12TextRenderer3new
FN:16,_RNvMNtCs1JhGRdf2CJD_5eu4rs4textNtB2_12TextRenderer6render
FN:44,_RNCNvMNtCs1JhGRdf2CJD_5eu4rs4textNtB4_12TextRenderer6render0B6_
FN:72,_RNvNtNtCs1JhGRdf2CJD_5eu4rs4text5testss_16test_text_render
FN:44,_RNCNvMNtCs7SMMKP1jOwW_5eu4rs4textNtB4_12TextRenderer6render0B6_
FN:9,_RNvMNtCs7SMMKP1jOwW_5eu4rs4textNtB2_12TextRenderer3new
FN:16,_RNvMNtCs7SMMKP1jOwW_5eu4rs4textNtB2_12TextRenderer6render
FNDA:2,_RNvMNtCs1JhGRdf2CJD_5eu4rs4textNtB2_12TextRenderer3new
FNDA:2,_RNvMNtCs1JhGRdf2CJD_5eu4rs4textNtB2_12TextRenderer6render
FNDA:8733,_RNCNvMNtCs1JhGRdf2CJD_5eu4rs4textNtB4_12TextRenderer6render0B6_
FNDA:1,_RNvNtNtCs1JhGRdf2CJD_5eu4rs4text5testss_16test_text_render
FNDA:0,_RNCNvMNtCs7SMMKP1jOwW_5eu4rs4textNtB4_12TextRenderer6render0B6_
FNDA:0,_RNvMNtCs7SMMKP1jOwW_5eu4rs4textNtB2_12TextRenderer3new
FNDA:0,_RNvMNtCs7SMMKP1jOwW_5eu4rs4textNtB2_12TextRenderer6render
FNF:4
FNH:4
DA:9,2
DA:10,2
DA:11,2
DA:12,2
DA:13,2
DA:16,2
DA:17,2
DA:19,200000
DA:20,200000
DA:21,200000
DA:23,2
DA:24,2
DA:25,2
DA:27,6
DA:28,6
DA:29,6
DA:31,6
DA:32,76
DA:33,76
DA:34,0
DA:35,76
DA:37,76
DA:38,76
DA:40,76
DA:41,76
DA:42,69
DA:44,8733
DA:45,8733
DA:46,8733
DA:48,8733
DA:49,8733
DA:50,8733
DA:51,8733
DA:52,5085
DA:53,5085
DA:54,0
DA:55,8733
DA:56,7
DA:57,76
DA:59,6
DA:62,2
DA:63,2
DA:72,1
DA:74,1
DA:75,1
DA:76,0
DA:77,0
DA:79,0
DA:80,0
DA:81,0
DA:83,0
DA:86,1
DA:87,1
DA:89,1
DA:91,1
DA:92,1
BRF:0
BRH:0
LF:57
LH:49
end_of_record
SF:C:\Users\atv\Documents\src\eu4rs\eu4rs\src\window.rs
FN:242,_RNvMs1_NtCs1JhGRdf2CJD_5eu4rs6windowNtB5_7Texture10from_bytes
FN:586,_RNCNCNvMs3_NtCs1JhGRdf2CJD_5eu4rs6windowNtB9_5State3new00Bb_
FN:831,_RNCNCNvNtCs1JhGRdf2CJD_5eu4rs6window3run00B7_
FN:1020,_RNCNCNvNtCs1JhGRdf2CJD_5eu4rs6window8snapshot00B7_
FN:550,_RNCNvMs3_NtCs1JhGRdf2CJD_5eu4rs6windowNtB7_5State3new0B9_
FN:813,_RNCNvNtCs1JhGRdf2CJD_5eu4rs6window3run0B5_
FN:887,_RNCNvNtCs1JhGRdf2CJD_5eu4rs6window8snapshot0B5_
FN:1110,_RNvNtNtCs1JhGRdf2CJD_5eu4rs6window5testss_17test_map_snapshot
FN:1194,_RNvNtNtCs1JhGRdf2CJD_5eu4rs6window5testss_20test_app_state_logic
FN:1135,_RNvNtNtCs1JhGRdf2CJD_5eu4rs6window5testss_21test_world_data_logic
FN:1047,_RNvNtNtCs1JhGRdf2CJD_5eu4rs6window5testss_23test_province_inspector
FN:19,_RNvMNtCs1JhGRdf2CJD_5eu4rs6windowNtB2_9WorldData15get_province_id
FN:28,_RNvMNtCs1JhGRdf2CJD_5eu4rs6windowNtB2_9WorldData20get_province_tooltip
FN:217,_RNvMs0_NtCs1JhGRdf2CJD_5eu4rs6windowNtB5_14InspectorState14update_texture
FN:128,_RNvMs0_NtCs1JhGRdf2CJD_5eu4rs6windowNtB5_14InspectorState3new
FN:177,_RNvMs0_NtCs1JhGRdf2CJD_5eu4rs6windowNtB5_14InspectorState6render
FN:169,_RNvMs0_NtCs1JhGRdf2CJD_5eu4rs6windowNtB5_14InspectorState6resize
FN:252,_RNvMs1_NtCs1JhGRdf2CJD_5eu4rs6windowNtB5_7Texture10from_image
FN:323,_RNvMs2_NtCs1JhGRdf2CJD_5eu4rs6windowNtB5_11Eu4Renderer14update_texture
FN:348,_RNvMs2_NtCs1JhGRdf2CJD_5eu4rs6windowNtB5_11Eu4Renderer20update_camera_buffer
FN:359,_RNvMs2_NtCs1JhGRdf2CJD_5eu4rs6windowNtB5_11Eu4Renderer3new
FN:545,_RNvMs3_NtCs1JhGRdf2CJD_5eu4rs6windowNtB5_5State3new
FN:664,_RNvMs3_NtCs1JhGRdf2CJD_5eu4rs6windowNtB5_5State5input
FN:756,_RNvMs3_NtCs1JhGRdf2CJD_5eu4rs6windowNtB5_5State6render
FN:652,_RNvMs3_NtCs1JhGRdf2CJD_5eu4rs6windowNtB5_5State6resize
FN:754,_RNvMs3_NtCs1JhGRdf2CJD_5eu4rs6windowNtB5_5State6update
FN:648,_RNvMs3_NtCs1JhGRdf2CJD_5eu4rs6windowNtB5_5State6window
FN:73,_RNvMs_NtCs1JhGRdf2CJD_5eu4rs6windowNtB4_8AppState13update_cursor
FN:77,_RNvMs_NtCs1JhGRdf2CJD_5eu4rs6windowNtB4_8AppState21get_selected_province
FN:50,_RNvMs_NtCs1JhGRdf2CJD_5eu4rs6windowNtB4_8AppState3new
FN:67,_RNvMs_NtCs1JhGRdf2CJD_5eu4rs6windowNtB4_8AppState6resize
FN:813,_RNvNtCs1JhGRdf2CJD_5eu4rs6window3run
FN:887,_RNvNtCs1JhGRdf2CJD_5eu4rs6window8snapshot
FN:242,_RNvMs1_NtCs7SMMKP1jOwW_5eu4rs6windowNtB5_7Texture10from_bytes
FN:586,_RNCNCNvMs3_NtCs7SMMKP1jOwW_5eu4rs6windowNtB9_5State3new00Bb_
FN:831,_RNCNCNvNtCs7SMMKP1jOwW_5eu4rs6window3run00B7_
FN:1020,_RNCNCNvNtCs7SMMKP1jOwW_5eu4rs6window8snapshot00B7_
FN:550,_RNCNvMs3_NtCs7SMMKP1jOwW_5eu4rs6windowNtB7_5State3new0B9_
FN:813,_RNCNvNtCs7SMMKP1jOwW_5eu4rs6window3run0B5_
FN:887,_RNCNvNtCs7SMMKP1jOwW_5eu4rs6window8snapshot0B5_
FN:19,_RNvMNtCs7SMMKP1jOwW_5eu4rs6windowNtB2_9WorldData15get_province_id
FN:28,_RNvMNtCs7SMMKP1jOwW_5eu4rs6windowNtB2_9WorldData20get_province_tooltip
FN:217,_RNvMs0_NtCs7SMMKP1jOwW_5eu4rs6windowNtB5_14InspectorState14update_texture
FN:128,_RNvMs0_NtCs7SMMKP1jOwW_5eu4rs6windowNtB5_14InspectorState3new
FN:177,_RNvMs0_NtCs7SMMKP1jOwW_5eu4rs6windowNtB5_14InspectorState6render
FN:169,_RNvMs0_NtCs7SMMKP1jOwW_5eu4rs6windowNtB5_14InspectorState6resize
FN:252,_RNvMs1_NtCs7SMMKP1jOwW_5eu4rs6windowNtB5_7Texture10from_image
FN:323,_RNvMs2_NtCs7SMMKP1jOwW_5eu4rs6windowNtB5_11Eu4Renderer14update_texture
FN:348,_RNvMs2_NtCs7SMMKP1jOwW_5eu4rs6windowNtB5_11Eu4Renderer20update_camera_buffer
FN:359,_RNvMs2_NtCs7SMMKP1jOwW_5eu4rs6windowNtB5_11Eu4Renderer3new
FN:545,_RNvMs3_NtCs7SMMKP1jOwW_5eu4rs6windowNtB5_5State3new
FN:664,_RNvMs3_NtCs7SMMKP1jOwW_5eu4rs6windowNtB5_5State5input
FN:756,_RNvMs3_NtCs7SMMKP1jOwW_5eu4rs6windowNtB5_5State6render
FN:652,_RNvMs3_NtCs7SMMKP1jOwW_5eu4rs6windowNtB5_5State6resize
FN:754,_RNvMs3_NtCs7SMMKP1jOwW_5eu4rs6windowNtB5_5State6update
FN:648,_RNvMs3_NtCs7SMMKP1jOwW_5eu4rs6windowNtB5_5State6window
FN:73,_RNvMs_NtCs7SMMKP1jOwW_5eu4rs6windowNtB4_8AppState13update_cursor
FN:77,_RNvMs_NtCs7SMMKP1jOwW_5eu4rs6windowNtB4_8AppState21get_selected_province
FN:50,_RNvMs_NtCs7SMMKP1jOwW_5eu4rs6windowNtB4_8AppState3new
FN:67,_RNvMs_NtCs7SMMKP1jOwW_5eu4rs6windowNtB4_8AppState6resize
FN:813,_RNvNtCs7SMMKP1jOwW_5eu4rs6window3run
FN:887,_RNvNtCs7SMMKP1jOwW_5eu4rs6window8snapshot
FNDA:0,_RNvMs1_NtCs1JhGRdf2CJD_5eu4rs6windowNtB5_7Texture10from_bytes
FNDA:0,_RNCNCNvMs3_NtCs1JhGRdf2CJD_5eu4rs6windowNtB9_5State3new00Bb_
FNDA:0,_RNCNCNvNtCs1JhGRdf2CJD_5eu4rs6window3run00B7_
FNDA:1,_RNCNCNvNtCs1JhGRdf2CJD_5eu4rs6window8snapshot00B7_
FNDA:0,_RNCNvMs3_NtCs1JhGRdf2CJD_5eu4rs6windowNtB7_5State3new0B9_
FNDA:0,_RNCNvNtCs1JhGRdf2CJD_5eu4rs6window3run0B5_
FNDA:1,_RNCNvNtCs1JhGRdf2CJD_5eu4rs6window8snapshot0B5_
FNDA:1,_RNvNtNtCs1JhGRdf2CJD_5eu4rs6window5testss_17test_map_snapshot
FNDA:1,_RNvNtNtCs1JhGRdf2CJD_5eu4rs6window5testss_20test_app_state_logic
FNDA:1,_RNvNtNtCs1JhGRdf2CJD_5eu4rs6window5testss_21test_world_data_logic
FNDA:1,_RNvNtNtCs1JhGRdf2CJD_5eu4rs6window5testss_23test_province_inspector
FNDA:7,_RNvMNtCs1JhGRdf2CJD_5eu4rs6windowNtB2_9WorldData15get_province_id
FNDA:5,_RNvMNtCs1JhGRdf2CJD_5eu4rs6windowNtB2_9WorldData20get_province_tooltip
FNDA:0,_RNvMs0_NtCs1JhGRdf2CJD_5eu4rs6windowNtB5_14InspectorState14update_texture
FNDA:0,_RNvMs0_NtCs1JhGRdf2CJD_5eu4rs6windowNtB5_14InspectorState3new
FNDA:0,_RNvMs0_NtCs1JhGRdf2CJD_5eu4rs6windowNtB5_14InspectorState6render
FNDA:0,_RNvMs0_NtCs1JhGRdf2CJD_5eu4rs6windowNtB5_14InspectorState6resize
FNDA:1,_RNvMs1_NtCs1JhGRdf2CJD_5eu4rs6windowNtB5_7Texture10from_image
FNDA:0,_RNvMs2_NtCs1JhGRdf2CJD_5eu4rs6windowNtB5_11Eu4Renderer14update_texture
FNDA:0,_RNvMs2_NtCs1JhGRdf2CJD_5eu4rs6windowNtB5_11Eu4Renderer20update_camera_buffer
FNDA:1,_RNvMs2_NtCs1JhGRdf2CJD_5eu4rs6windowNtB5_11Eu4Renderer3new
FNDA:0,_RNvMs3_NtCs1JhGRdf2CJD_5eu4rs6windowNtB5_5State3new
FNDA:0,_RNvMs3_NtCs1JhGRdf2CJD_5eu4rs6windowNtB5_5State5input
FNDA:0,_RNvMs3_NtCs1JhGRdf2CJD_5eu4rs6windowNtB5_5State6render
FNDA:0,_RNvMs3_NtCs1JhGRdf2CJD_5eu4rs6windowNtB5_5State6resize
FNDA:0,_RNvMs3_NtCs1JhGRdf2CJD_5eu4rs6windowNtB5_5State6update
FNDA:0,_RNvMs3_NtCs1JhGRdf2CJD_5eu4rs6windowNtB5_5State6window
FNDA:3,_RNvMs_NtCs1JhGRdf2CJD_5eu4rs6windowNtB4_8AppState13update_cursor
FNDA:2,_RNvMs_NtCs1JhGRdf2CJD_5eu4rs6windowNtB4_8AppState21get_selected_province
FNDA:1,_RNvMs_NtCs1JhGRdf2CJD_5eu4rs6windowNtB4_8AppState3new
FNDA:1,_RNvMs_NtCs1JhGRdf2CJD_5eu4rs6windowNtB4_8AppState6resize
FNDA:0,_RNvNtCs1JhGRdf2CJD_5eu4rs6window3run
FNDA:1,_RNvNtCs1JhGRdf2CJD_5eu4rs6window8snapshot
FNDA:0,_RNvMs1_NtCs7SMMKP1jOwW_5eu4rs6windowNtB5_7Texture10from_bytes
FNDA:0,_RNCNCNvMs3_NtCs7SMMKP1jOwW_5eu4rs6windowNtB9_5State3new00Bb_
FNDA:0,_RNCNCNvNtCs7SMMKP1jOwW_5eu4rs6window3run00B7_
FNDA:0,_RNCNCNvNtCs7SMMKP1jOwW_5eu4rs6window8snapshot00B7_
FNDA:0,_RNCNvMs3_NtCs7SMMKP1jOwW_5eu4rs6windowNtB7_5State3new0B9_
FNDA:0,_RNCNvNtCs7SMMKP1jOwW_5eu4rs6window3run0B5_
FNDA:0,_RNCNvNtCs7SMMKP1jOwW_5eu4rs6window8snapshot0B5_
FNDA:0,_RNvMNtCs7SMMKP1jOwW_5eu4rs6windowNtB2_9WorldData15get_province_id
FNDA:0,_RNvMNtCs7SMMKP1jOwW_5eu4rs6windowNtB2_9WorldData20get_province_tooltip
FNDA:0,_RNvMs0_NtCs7SMMKP1jOwW_5eu4rs6windowNtB5_14InspectorState14update_texture
FNDA:0,_RNvMs0_NtCs7SMMKP1jOwW_5eu4rs6windowNtB5_14InspectorState3new
FNDA:0,_RNvMs0_NtCs7SMMKP1jOwW_5eu4rs6windowNtB5_14InspectorState6render
FNDA:0,_RNvMs0_NtCs7SMMKP1jOwW_5eu4rs6windowNtB5_14InspectorState6resize
FNDA:0,_RNvMs1_NtCs7SMMKP1jOwW_5eu4rs6windowNtB5_7Texture10from_image
FNDA:0,_RNvMs2_NtCs7SMMKP1jOwW_5eu4rs6windowNtB5_11Eu4Renderer14update_texture
FNDA:0,_RNvMs2_NtCs7SMMKP1jOwW_5eu4rs6windowNtB5_11Eu4Renderer20update_camera_buffer
FNDA:0,_RNvMs2_NtCs7SMMKP1jOwW_5eu4rs6windowNtB5_11Eu4Renderer3new
FNDA:0,_RNvMs3_NtCs7SMMKP1jOwW_5eu4rs6windowNtB5_5State3new
FNDA:0,_RNvMs3_NtCs7SMMKP1jOwW_5eu4rs6windowNtB5_5State5input
FNDA:0,_RNvMs3_NtCs7SMMKP1jOwW_5eu4rs6windowNtB5_5State6render
FNDA:0,_RNvMs3_NtCs7SMMKP1jOwW_5eu4rs6windowNtB5_5State6resize
FNDA:0,_RNvMs3_NtCs7SMMKP1jOwW_5eu4rs6windowNtB5_5State6update
FNDA:0,_RNvMs3_NtCs7SMMKP1jOwW_5eu4rs6windowNtB5_5State6window
FNDA:0,_RNvMs_NtCs7SMMKP1jOwW_5eu4rs6windowNtB4_8AppState13update_cursor
FNDA:0,_RNvMs_NtCs7SMMKP1jOwW_5eu4rs6windowNtB4_8AppState21get_selected_province
FNDA:0,_RNvMs_NtCs7SMMKP1jOwW_5eu4rs6windowNtB4_8AppState3new
FNDA:0,_RNvMs_NtCs7SMMKP1jOwW_5eu4rs6windowNtB4_8AppState6resize
FNDA:0,_RNvNtCs7SMMKP1jOwW_5eu4rs6window3run
FNDA:0,_RNvNtCs7SMMKP1jOwW_5eu4rs6window8snapshot
FNF:33
FNH:15
DA:19,7
DA:20,7
DA:21,1
DA:22,6
DA:23,6
DA:24,6
DA:25,6
DA:26,7
DA:28,5
DA:29,5
DA:30,2
DA:31,2
DA:32,2
DA:34,3
DA:36,5
DA:50,1
DA:51,1
DA:52,1
DA:53,1
DA:55,0
DA:57,1
DA:58,1
DA:59,1
DA:60,1
DA:61,1
DA:62,1
DA:63,1
DA:64,1
DA:65,1
DA:67,1
DA:68,1
DA:69,1
DA:70,1
DA:71,1
DA:73,3
DA:74,3
DA:75,3
DA:77,2
DA:78,2
DA:80,2
DA:81,2
DA:84,2
DA:85,0
DA:86,2
DA:89,2
DA:90,2
DA:91,2
DA:92,2
DA:93,2
DA:97,2
DA:98,0
DA:99,0
DA:100,2
DA:102,2
DA:103,2
DA:104,2
DA:106,2
DA:107,2
DA:108,2
DA:110,0
DA:112,0
DA:113,0
DA:114,0
DA:115,2
DA:128,0
DA:129,0
DA:130,0
DA:131,0
DA:132,0
DA:133,0
DA:134,0
DA:137,0
DA:142,0
DA:143,0
DA:144,0
DA:145,0
DA:146,0
DA:147,0
DA:148,0
DA:149,0
DA:150,0
DA:151,0
DA:153,0
DA:155,0
DA:159,0
DA:161,0
DA:162,0
DA:163,0
DA:164,0
DA:165,0
DA:166,0
DA:167,0
DA:169,0
DA:170,0
DA:171,0
DA:172,0
DA:173,0
DA:174,0
DA:175,0
DA:177,0
DA:178,0
DA:179,0
DA:180,0
DA:181,0
DA:182,0
DA:183,0
DA:184,0
DA:185,0
DA:187,0
DA:188,0
DA:189,0
DA:191,0
DA:192,0
DA:193,0
DA:194,0
DA:195,0
DA:196,0
DA:197,0
DA:198,0
DA:199,0
DA:200,0
DA:201,0
DA:202,0
DA:203,0
DA:204,0
DA:205,0
DA:206,0
DA:207,0
DA:208,0
DA:209,0
DA:210,0
DA:212,0
DA:213,0
DA:214,0
DA:215,0
DA:217,0
DA:218,0
DA:219,0
DA:220,0
DA:221,0
DA:222,0
DA:223,0
DA:224,0
DA:225,0
DA:226,0
DA:227,0
DA:228,0
DA:229,0
DA:230,0
DA:242,0
DA:243,0
DA:244,0
DA:245,0
DA:246,0
DA:247,0
DA:248,0
DA:249,0
DA:250,0
DA:252,1
DA:253,1
DA:254,1
DA:255,1
DA:256,1
DA:257,1
DA:258,1
DA:259,1
DA:261,1
DA:262,1
DA:263,1
DA:264,1
DA:265,1
DA:266,1
DA:267,1
DA:268,1
DA:269,1
DA:270,1
DA:271,1
DA:272,1
DA:273,1
DA:274,1
DA:275,1
DA:277,1
DA:278,1
DA:279,1
DA:280,1
DA:281,1
DA:282,1
DA:283,1
DA:284,1
DA:285,1
DA:286,1
DA:287,1
DA:288,1
DA:289,1
DA:290,1
DA:293,1
DA:294,1
DA:295,1
DA:296,1
DA:297,1
DA:298,1
DA:299,1
DA:300,1
DA:301,1
DA:302,1
DA:304,1
DA:305,1
DA:306,1
DA:307,1
DA:308,1
DA:309,1
DA:323,0
DA:324,0
DA:326,0
DA:328,0
DA:329,0
DA:330,0
DA:331,0
DA:332,0
DA:333,0
DA:334,0
DA:335,0
DA:336,0
DA:337,0
DA:338,0
DA:339,0
DA:340,0
DA:341,0
DA:342,0
DA:343,0
DA:344,0
DA:345,0
DA:346,0
DA:348,0
DA:349,0
DA:350,0
DA:359,1
DA:360,1
DA:361,1
DA:362,1
DA:363,1
DA:364,1
DA:366,1
DA:367,1
DA:368,1
DA:369,1
DA:373,1
DA:374,1
DA:375,0
DA:376,0
DA:377,0
DA:378,0
DA:379,0
DA:382,1
DA:383,1
DA:385,1
DA:386,1
DA:387,1
DA:388,1
DA:389,1
DA:390,1
DA:392,0
DA:393,0
DA:394,0
DA:395,0
DA:397,0
DA:398,0
DA:399,0
DA:400,0
DA:401,0
DA:405,1
DA:406,1
DA:407,1
DA:408,1
DA:409,1
DA:410,1
DA:411,1
DA:412,1
DA:413,1
DA:414,1
DA:417,1
DA:418,1
DA:419,1
DA:420,1
DA:421,1
DA:423,1
DA:424,1
DA:425,1
DA:426,1
DA:427,1
DA:428,1
DA:429,1
DA:430,1
DA:431,1
DA:432,1
DA:433,1
DA:434,1
DA:435,1
DA:436,1
DA:437,1
DA:438,1
DA:439,1
DA:440,1
DA:441,1
DA:442,1
DA:443,1
DA:444,1
DA:445,1
DA:446,1
DA:447,1
DA:448,1
DA:449,1
DA:450,1
DA:451,1
DA:452,1
DA:453,1
DA:454,1
DA:456,1
DA:457,1
DA:458,1
DA:459,1
DA:460,1
DA:461,1
DA:462,1
DA:463,1
DA:464,1
DA:465,1
DA:466,1
DA:467,1
DA:468,1
DA:469,1
DA:470,1
DA:471,1
DA:472,1
DA:473,1
DA:475,1
DA:477,1
DA:478,1
DA:479,1
DA:480,1
DA:481,1
DA:482,1
DA:484,1
DA:485,1
DA:486,1
DA:487,1
DA:488,1
DA:489,1
DA:490,1
DA:491,1
DA:492,1
DA:493,1
DA:494,1
DA:495,1
DA:496,1
DA:497,1
DA:498,1
DA:499,1
DA:500,1
DA:501,1
DA:502,1
DA:503,1
DA:504,1
DA:505,1
DA:506,1
DA:507,1
DA:508,1
DA:509,1
DA:510,1
DA:511,1
DA:512,1
DA:513,1
DA:514,1
DA:515,1
DA:516,1
DA:517,1
DA:518,1
DA:519,1
DA:521,1
DA:522,1
DA:523,1
DA:524,1
DA:525,1
DA:526,1
DA:527,1
DA:545,0
DA:546,0
DA:547,0
DA:548,0
DA:549,0
DA:550,0
DA:551,0
DA:553,0
DA:554,0
DA:555,0
DA:556,0
DA:558,0
DA:560,0
DA:561,0
DA:562,0
DA:563,0
DA:564,0
DA:565,0
DA:566,0
DA:567,0
DA:569,0
DA:570,0
DA:571,0
DA:572,0
DA:573,0
DA:574,0
DA:575,0
DA:576,0
DA:577,0
DA:578,0
DA:579,0
DA:581,0
DA:582,0
DA:583,0
DA:584,0
DA:585,0
DA:586,0
DA:587,0
DA:589,0
DA:590,0
DA:591,0
DA:592,0
DA:593,0
DA:594,0
DA:595,0
DA:596,0
DA:597,0
DA:598,0
DA:600,0
DA:604,0
DA:606,0
DA:607,0
DA:608,0
DA:609,0
DA:611,0
DA:613,0
DA:614,0
DA:617,0
DA:618,0
DA:620,0
DA:623,0
DA:624,0
DA:625,0
DA:628,0
DA:629,0
DA:632,0
DA:634,0
DA:635,0
DA:636,0
DA:637,0
DA:638,0
DA:639,0
DA:640,0
DA:641,0
DA:642,0
DA:643,0
DA:644,0
DA:645,0
DA:646,0
DA:648,0
DA:649,0
DA:650,0
DA:652,0
DA:653,0
DA:654,0
DA:655,0
DA:656,0
DA:657,0
DA:658,0
DA:659,0
DA:660,0
DA:661,0
DA:662,0
DA:664,0
DA:665,0
DA:666,0
DA:667,0
DA:668,0
DA:669,0
DA:672,0
DA:673,0
DA:674,0
DA:675,0
DA:676,0
DA:677,0
DA:678,0
DA:679,0
DA:680,0
DA:682,0
DA:683,0
DA:684,0
DA:685,0
DA:687,0
DA:688,0
DA:689,0
DA:690,0
DA:691,0
DA:693,0
DA:696,0
DA:697,0
DA:698,0
DA:700,0
DA:705,0
DA:706,0
DA:707,0
DA:708,0
DA:709,0
DA:710,0
DA:711,0
DA:713,0
DA:714,0
DA:715,0
DA:718,0
DA:722,0
DA:723,0
DA:731,0
DA:732,0
DA:733,0
DA:734,0
DA:736,0
DA:738,0
DA:739,0
DA:741,0
DA:742,0
DA:743,0
DA:744,0
DA:746,0
DA:747,0
DA:748,0
DA:750,0
DA:752,0
DA:754,0
DA:756,0
DA:759,0
DA:760,0
DA:761,0
DA:762,0
DA:763,0
DA:765,0
DA:766,0
DA:767,0
DA:768,0
DA:770,0
DA:771,0
DA:772,0
DA:773,0
DA:774,0
DA:776,0
DA:777,0
DA:778,0
DA:779,0
DA:780,0
DA:781,0
DA:782,0
DA:783,0
DA:784,0
DA:785,0
DA:786,0
DA:787,0
DA:788,0
DA:789,0
DA:790,0
DA:791,0
DA:792,0
DA:793,0
DA:794,0
DA:795,0
DA:796,0
DA:797,0
DA:798,0
DA:799,0
DA:800,0
DA:802,0
DA:803,0
DA:805,0
DA:806,0
DA:813,0
DA:814,0
DA:815,0
DA:816,0
DA:817,0
DA:818,0
DA:819,0
DA:821,0
DA:822,0
DA:823,0
DA:824,0
DA:825,0
DA:826,0
DA:828,0
DA:830,0
DA:831,0
DA:833,0
DA:834,0
DA:836,0
DA:837,0
DA:838,0
DA:839,0
DA:840,0
DA:842,0
DA:843,0
DA:844,0
DA:845,0
DA:846,0
DA:847,0
DA:850,0
DA:852,0
DA:853,0
DA:854,0
DA:855,0
DA:856,0
DA:857,0
DA:858,0
DA:859,0
DA:860,0
DA:862,0
DA:863,0
DA:864,0
DA:866,0
DA:868,0
DA:870,0
DA:871,0
DA:872,0
DA:873,0
DA:874,0
DA:875,0
DA:876,0
DA:887,1
DA:891,1
DA:893,1
DA:894,1
DA:895,1
DA:896,1
DA:900,1
DA:901,1
DA:902,1
DA:903,1
DA:904,1
DA:905,1
DA:906,1
DA:909,1
DA:911,0
DA:912,1
DA:913,1
DA:915,1
DA:916,1
DA:917,1
DA:918,1
DA:919,1
DA:920,1
DA:921,1
DA:922,1
DA:923,1
DA:924,1
DA:925,1
DA:928,1
DA:930,1
DA:931,1
DA:932,1
DA:935,1
DA:936,1
DA:937,1
DA:938,1
DA:939,1
DA:940,1
DA:941,1
DA:942,1
DA:943,1
DA:944,1
DA:945,1
DA:946,1
DA:947,1
DA:948,1
DA:949,1
DA:950,1
DA:953,1
DA:954,1
DA:955,1
DA:956,1
DA:957,1
DA:958,1
DA:959,1
DA:960,1
DA:961,1
DA:964,1
DA:965,1
DA:966,1
DA:968,1
DA:969,1
DA:970,1
DA:971,1
DA:972,1
DA:973,1
DA:974,1
DA:975,1
DA:976,1
DA:977,1
DA:978,1
DA:979,1
DA:980,1
DA:981,1
DA:982,1
DA:983,1
DA:984,1
DA:985,1
DA:986,1
DA:987,1
DA:988,1
DA:989,1
DA:990,1
DA:991,1
DA:992,1
DA:995,1
DA:996,1
DA:997,1
DA:998,1
DA:999,1
DA:1000,1
DA:1001,1
DA:1002,1
DA:1003,1
DA:1004,1
DA:1005,1
DA:1006,1
DA:1007,1
DA:1008,1
DA:1009,1
DA:1010,1
DA:1013,1
DA:1016,1
DA:1019,1
DA:1020,1
DA:1021,1
DA:1022,1
DA:1024,1
DA:1027,1
DA:1028,1
DA:1029,1
DA:1031,1
DA:1032,1
DA:1033,1
DA:1034,1
DA:1047,1
DA:1049,1
DA:1050,1
DA:1053,1
DA:1054,1
DA:1055,1
DA:1057,1
DA:1058,1
DA:1060,1
DA:1061,1
DA:1062,1
DA:1063,1
DA:1064,1
DA:1065,1
DA:1066,1
DA:1067,1
DA:1068,1
DA:1071,1
DA:1072,1
DA:1073,1
DA:1074,1
DA:1075,1
DA:1078,1
DA:1079,1
DA:1081,1
DA:1082,1
DA:1083,1
DA:1087,1
DA:1088,1
DA:1089,1
DA:1091,0
DA:1094,1
DA:1095,0
DA:1096,0
DA:1097,1
DA:1099,1
DA:1100,1
DA:1103,1
DA:1106,1
DA:1107,1
DA:1110,1
DA:1113,1
DA:1116,1
DA:1117,1
DA:1118,1
DA:1119,1
DA:1120,1
DA:1121,1
DA:1122,1
DA:1123,1
DA:1124,0
DA:1125,0
DA:1126,0
DA:1127,0
DA:1128,0
DA:1129,0
DA:1132,1
DA:1135,1
DA:1146,1
DA:1147,1
DA:1148,1
DA:1149,1
DA:1150,1
DA:1153,1
DA:1154,1
DA:1155,1
DA:1158,1
DA:1159,1
DA:1161,1
DA:1162,1
DA:1163,1
DA:1164,1
DA:1165,1
DA:1166,1
DA:1167,1
DA:1170,1
DA:1171,1
DA:1172,1
DA:1173,1
DA:1174,1
DA:1177,1
DA:1178,1
DA:1179,1
DA:1180,1
DA:1183,1
DA:1184,1
DA:1185,1
DA:1186,1
DA:1188,1
DA:1189,1
DA:1190,1
DA:1191,1
DA:1194,1
DA:1202,1
DA:1203,1
DA:1204,1
DA:1206,10000
DA:1207,10000
DA:1208,10000
DA:1210,1
DA:1211,1
DA:1212,1
DA:1213,1
DA:1214,1
DA:1217,1
DA:1220,1
DA:1221,1
DA:1222,1
DA:1223,1
DA:1224,1
DA:1225,1
DA:1229,1
DA:1230,1
DA:1232,1
DA:1233,1
DA:1234,1
DA:1237,1
DA:1238,1
DA:1239,1
BRF:0
BRH:0
LF:872
LH:470
end_of_record
SF:C:\Users\atv\Documents\src\eu4rs\eu4txt\src\de.rs
FN:22,_RINvNtCs5WJ3N3zt60z_6eu4txt2de9from_nodeNtCsaHGe17Pe3JB_8de_tests6NestedEBE_
FN:22,_RINvNtCs5WJ3N3zt60z_6eu4txt2de9from_nodeNtCsaHGe17Pe3JB_8de_tests6SimpleEBE_
FN:22,_RINvNtCs5WJ3N3zt60z_6eu4txt2de9from_nodeNtCsaHGe17Pe3JB_8de_tests8BoolTestEBE_
FN:22,_RINvNtCs5WJ3N3zt60z_6eu4txt2de9from_nodeNtCsaHGe17Pe3JB_8de_tests8ListTestEBE_
FN:41,_RINvXs1_NtCs5WJ3N3zt60z_6eu4txt2deNtB6_5ErrorNtNtCs2oGb9mSlBjX_10serde_core2de5Error6customNtNtCs6joXTnudZij_4core3fmt9ArgumentsECsaHGe17Pe3JB_8de_tests
FN:49,_RINvXs2_NtCs5WJ3N3zt60z_6eu4txt2deQNtB6_12DeserializerNtNtCs2oGb9mSlBjX_10serde_core2de12Deserializer15deserialize_anyNtNtBS_11ignored_any10IgnoredAnyECsaHGe17Pe3JB_8de_tests
FN:49,_RINvXs2_NtCs5WJ3N3zt60z_6eu4txt2deQNtB6_12DeserializerNtNtCs2oGb9mSlBjX_10serde_core2de12Deserializer15deserialize_anyNtNvXNvCsaHGe17Pe3JB_8de_tests1__NtB1Z_6SimpleNtBS_11Deserialize11deserialize14___FieldVisitorEB1Z_
FN:49,_RINvXs2_NtCs5WJ3N3zt60z_6eu4txt2deQNtB6_12DeserializerNtNtCs2oGb9mSlBjX_10serde_core2de12Deserializer15deserialize_anyNtNvXNvCsaHGe17Pe3JB_8de_testss0_1__NtB1Z_8ListTestNtBS_11Deserialize11deserialize14___FieldVisitorEB1Z_
FN:49,_RINvXs2_NtCs5WJ3N3zt60z_6eu4txt2deQNtB6_12DeserializerNtNtCs2oGb9mSlBjX_10serde_core2de12Deserializer15deserialize_anyNtNvXNvCsaHGe17Pe3JB_8de_testss1_1__NtB1Z_6NestedNtBS_11Deserialize11deserialize14___FieldVisitorEB1Z_
FN:49,_RINvXs2_NtCs5WJ3N3zt60z_6eu4txt2deQNtB6_12DeserializerNtNtCs2oGb9mSlBjX_10serde_core2de12Deserializer15deserialize_anyNtNvXNvCsaHGe17Pe3JB_8de_testss_1__NtB1Z_8BoolTestNtBS_11Deserialize11deserialize14___FieldVisitorEB1Z_
FN:105,_RINvXs2_NtCs5WJ3N3zt60z_6eu4txt2deQNtB6_12DeserializerNtNtCs2oGb9mSlBjX_10serde_core2de12Deserializer15deserialize_i32NtNvXsP_NtBS_5implslNtBS_11Deserialize11deserialize16PrimitiveVisitorECsaHGe17Pe3JB_8de_tests
FN:161,_RINvXs2_NtCs5WJ3N3zt60z_6eu4txt2deQNtB6_12DeserializerNtNtCs2oGb9mSlBjX_10serde_core2de12Deserializer15deserialize_mapNtNtBS_11ignored_any10IgnoredAnyECsaHGe17Pe3JB_8de_tests
FN:161,_RINvXs2_NtCs5WJ3N3zt60z_6eu4txt2deQNtB6_12DeserializerNtNtCs2oGb9mSlBjX_10serde_core2de12Deserializer15deserialize_mapNtNvXNvCsaHGe17Pe3JB_8de_tests1__NtB1Z_6SimpleNtBS_11Deserialize11deserialize14___FieldVisitorEB1Z_
FN:161,_RINvXs2_NtCs5WJ3N3zt60z_6eu4txt2deQNtB6_12DeserializerNtNtCs2oGb9mSlBjX_10serde_core2de12Deserializer15deserialize_mapNtNvXNvCsaHGe17Pe3JB_8de_tests1__NtB1Z_6SimpleNtBS_11Deserialize11deserialize9___VisitorEB1Z_
FN:161,_RINvXs2_NtCs5WJ3N3zt60z_6eu4txt2deQNtB6_12DeserializerNtNtCs2oGb9mSlBjX_10serde_core2de12Deserializer15deserialize_mapNtNvXNvCsaHGe17Pe3JB_8de_testss0_1__NtB1Z_8ListTestNtBS_11Deserialize11deserialize14___FieldVisitorEB1Z_
FN:161,_RINvXs2_NtCs5WJ3N3zt60z_6eu4txt2deQNtB6_12DeserializerNtNtCs2oGb9mSlBjX_10serde_core2de12Deserializer15deserialize_mapNtNvXNvCsaHGe17Pe3JB_8de_testss0_1__NtB1Z_8ListTestNtBS_11Deserialize11deserialize9___VisitorEB1Z_
FN:161,_RINvXs2_NtCs5WJ3N3zt60z_6eu4txt2deQNtB6_12DeserializerNtNtCs2oGb9mSlBjX_10serde_core2de12Deserializer15deserialize_mapNtNvXNvCsaHGe17Pe3JB_8de_testss1_1__NtB1Z_6NestedNtBS_11Deserialize11deserialize14___FieldVisitorEB1Z_
FN:161,_RINvXs2_NtCs5WJ3N3zt60z_6eu4txt2deQNtB6_12DeserializerNtNtCs2oGb9mSlBjX_10serde_core2de12Deserializer15deserialize_mapNtNvXNvCsaHGe17Pe3JB_8de_testss1_1__NtB1Z_6NestedNtBS_11Deserialize11deserialize9___VisitorEB1Z_
FN:161,_RINvXs2_NtCs5WJ3N3zt60z_6eu4txt2deQNtB6_12DeserializerNtNtCs2oGb9mSlBjX_10serde_core2de12Deserializer15deserialize_mapNtNvXNvCsaHGe17Pe3JB_8de_testss_1__NtB1Z_8BoolTestNtBS_11Deserialize11deserialize14___FieldVisitorEB1Z_
FN:161,_RINvXs2_NtCs5WJ3N3zt60z_6eu4txt2deQNtB6_12DeserializerNtNtCs2oGb9mSlBjX_10serde_core2de12Deserializer15deserialize_mapNtNvXNvCsaHGe17Pe3JB_8de_testss_1__NtB1Z_8BoolTestNtBS_11Deserialize11deserialize9___VisitorEB1Z_
FN:142,_RINvXs2_NtCs5WJ3N3zt60z_6eu4txt2deQNtB6_12DeserializerNtNtCs2oGb9mSlBjX_10serde_core2de12Deserializer15deserialize_seqINtNvXsh_NtBS_5implsINtNtCs2YhQnMI27q1_5alloc3vec3VecpENtBS_11Deserialize11deserialize10VecVisitorNtNtB2h_6string6StringEECsaHGe17Pe3JB_8de_tests
FN:142,_RINvXs2_NtCs5WJ3N3zt60z_6eu4txt2deQNtB6_12DeserializerNtNtCs2oGb9mSlBjX_10serde_core2de12Deserializer15deserialize_seqINtNvXsh_NtBS_5implsINtNtCs2YhQnMI27q1_5alloc3vec3VecpENtBS_11Deserialize11deserialize10VecVisitorlEECsaHGe17Pe3JB_8de_tests
FN:142,_RINvXs2_NtCs5WJ3N3zt60z_6eu4txt2deQNtB6_12DeserializerNtNtCs2oGb9mSlBjX_10serde_core2de12Deserializer15deserialize_seqNtNtBS_11ignored_any10IgnoredAnyECsaHGe17Pe3JB_8de_tests
FN:142,_RINvXs2_NtCs5WJ3N3zt60z_6eu4txt2deQNtB6_12DeserializerNtNtCs2oGb9mSlBjX_10serde_core2de12Deserializer15deserialize_seqNtNvXNvCsaHGe17Pe3JB_8de_tests1__NtB1Z_6SimpleNtBS_11Deserialize11deserialize14___FieldVisitorEB1Z_
FN:142,_RINvXs2_NtCs5WJ3N3zt60z_6eu4txt2deQNtB6_12DeserializerNtNtCs2oGb9mSlBjX_10serde_core2de12Deserializer15deserialize_seqNtNvXNvCsaHGe17Pe3JB_8de_testss0_1__NtB1Z_8ListTestNtBS_11Deserialize11deserialize14___FieldVisitorEB1Z_
FN:142,_RINvXs2_NtCs5WJ3N3zt60z_6eu4txt2deQNtB6_12DeserializerNtNtCs2oGb9mSlBjX_10serde_core2de12Deserializer15deserialize_seqNtNvXNvCsaHGe17Pe3JB_8de_testss1_1__NtB1Z_6NestedNtBS_11Deserialize11deserialize14___FieldVisitorEB1Z_
FN:142,_RINvXs2_NtCs5WJ3N3zt60z_6eu4txt2deQNtB6_12DeserializerNtNtCs2oGb9mSlBjX_10serde_core2de12Deserializer15deserialize_seqNtNvXNvCsaHGe17Pe3JB_8de_testss_1__NtB1Z_8BoolTestNtBS_11Deserialize11deserialize14___FieldVisitorEB1Z_
FN:125,_RINvXs2_NtCs5WJ3N3zt60z_6eu4txt2deQNtB6_12DeserializerNtNtCs2oGb9mSlBjX_10serde_core2de12Deserializer15deserialize_strNtNtBS_5impls13StringVisitorECsaHGe17Pe3JB_8de_tests
FN:87,_RINvXs2_NtCs5WJ3N3zt60z_6eu4txt2deQNtB6_12DeserializerNtNtCs2oGb9mSlBjX_10serde_core2de12Deserializer16deserialize_boolNtNtBS_5impls11BoolVisitorECsaHGe17Pe3JB_8de_tests
FN:135,_RINvXs2_NtCs5WJ3N3zt60z_6eu4txt2deQNtB6_12DeserializerNtNtCs2oGb9mSlBjX_10serde_core2de12Deserializer18deserialize_stringNtNtBS_5impls13StringVisitorECsaHGe17Pe3JB_8de_tests
FN:149,_RINvXs2_NtCs5WJ3N3zt60z_6eu4txt2deQNtB6_12DeserializerNtNtCs2oGb9mSlBjX_10serde_core2de12Deserializer18deserialize_structNtNvXNvCsaHGe17Pe3JB_8de_tests1__NtB22_6SimpleNtBS_11Deserialize11deserialize9___VisitorEB22_
FN:149,_RINvXs2_NtCs5WJ3N3zt60z_6eu4txt2deQNtB6_12DeserializerNtNtCs2oGb9mSlBjX_10serde_core2de12Deserializer18deserialize_structNtNvXNvCsaHGe17Pe3JB_8de_testss0_1__NtB22_8ListTestNtBS_11Deserialize11deserialize9___VisitorEB22_
FN:149,_RINvXs2_NtCs5WJ3N3zt60z_6eu4txt2deQNtB6_12DeserializerNtNtCs2oGb9mSlBjX_10serde_core2de12Deserializer18deserialize_structNtNvXNvCsaHGe17Pe3JB_8de_testss1_1__NtB22_6NestedNtBS_11Deserialize11deserialize9___VisitorEB22_
FN:149,_RINvXs2_NtCs5WJ3N3zt60z_6eu4txt2deQNtB6_12DeserializerNtNtCs2oGb9mSlBjX_10serde_core2de12Deserializer18deserialize_structNtNvXNvCsaHGe17Pe3JB_8de_testss_1__NtB22_8BoolTestNtBS_11Deserialize11deserialize9___VisitorEB22_
FN:199,_RINvXs4_NtCs5WJ3N3zt60z_6eu4txt2deNtB6_14CommaSeparatedNtNtCs2oGb9mSlBjX_10serde_core2de9SeqAccess17next_element_seedINtNtCs6joXTnudZij_4core6marker11PhantomDataNtNtBT_11ignored_any10IgnoredAnyEECsaHGe17Pe3JB_8de_tests
FN:199,_RINvXs4_NtCs5WJ3N3zt60z_6eu4txt2deNtB6_14CommaSeparatedNtNtCs2oGb9mSlBjX_10serde_core2de9SeqAccess17next_element_seedINtNtCs6joXTnudZij_4core6marker11PhantomDataNtNtCs2YhQnMI27q1_5alloc6string6StringEECsaHGe17Pe3JB_8de_tests
FN:199,_RINvXs4_NtCs5WJ3N3zt60z_6eu4txt2deNtB6_14CommaSeparatedNtNtCs2oGb9mSlBjX_10serde_core2de9SeqAccess17next_element_seedINtNtCs6joXTnudZij_4core6marker11PhantomDatalEECsaHGe17Pe3JB_8de_tests
FN:220,_RINvXs5_NtCs5WJ3N3zt60z_6eu4txt2deNtB6_14CommaSeparatedNtNtCs2oGb9mSlBjX_10serde_core2de9MapAccess13next_key_seedINtNtCs6joXTnudZij_4core6marker11PhantomDataNtNtBT_11ignored_any10IgnoredAnyEECsaHGe17Pe3JB_8de_tests
FN:220,_RINvXs5_NtCs5WJ3N3zt60z_6eu4txt2deNtB6_14CommaSeparatedNtNtCs2oGb9mSlBjX_10serde_core2de9MapAccess13next_key_seedINtNtCs6joXTnudZij_4core6marker11PhantomDataNtNvXNvCsaHGe17Pe3JB_8de_tests1__NtB2C_6SimpleNtBT_11Deserialize11deserialize7___FieldEEB2C_
FN:220,_RINvXs5_NtCs5WJ3N3zt60z_6eu4txt2deNtB6_14CommaSeparatedNtNtCs2oGb9mSlBjX_10serde_core2de9MapAccess13next_key_seedINtNtCs6joXTnudZij_4core6marker11PhantomDataNtNvXNvCsaHGe17Pe3JB_8de_testss0_1__NtB2C_8ListTestNtBT_11Deserialize11deserialize7___FieldEEB2C_
FN:220,_RINvXs5_NtCs5WJ3N3zt60z_6eu4txt2deNtB6_14CommaSeparatedNtNtCs2oGb9mSlBjX_10serde_core2de9MapAccess13next_key_seedINtNtCs6joXTnudZij_4core6marker11PhantomDataNtNvXNvCsaHGe17Pe3JB_8de_testss1_1__NtB2C_6NestedNtBT_11Deserialize11deserialize7___FieldEEB2C_
FN:220,_RINvXs5_NtCs5WJ3N3zt60z_6eu4txt2deNtB6_14CommaSeparatedNtNtCs2oGb9mSlBjX_10serde_core2de9MapAccess13next_key_seedINtNtCs6joXTnudZij_4core6marker11PhantomDataNtNvXNvCsaHGe17Pe3JB_8de_testss_1__NtB2C_8BoolTestNtBT_11Deserialize11deserialize7___FieldEEB2C_
FN:262,_RINvXs5_NtCs5WJ3N3zt60z_6eu4txt2deNtB6_14CommaSeparatedNtNtCs2oGb9mSlBjX_10serde_core2de9MapAccess15next_value_seedINtNtCs6joXTnudZij_4core6marker11PhantomDataINtNtCs2YhQnMI27q1_5alloc3vec3VecNtNtB2C_6string6StringEEECsaHGe17Pe3JB_8de_tests
FN:262,_RINvXs5_NtCs5WJ3N3zt60z_6eu4txt2deNtB6_14CommaSeparatedNtNtCs2oGb9mSlBjX_10serde_core2de9MapAccess15next_value_seedINtNtCs6joXTnudZij_4core6marker11PhantomDataINtNtCs2YhQnMI27q1_5alloc3vec3VeclEEECsaHGe17Pe3JB_8de_tests
FN:262,_RINvXs5_NtCs5WJ3N3zt60z_6eu4txt2deNtB6_14CommaSeparatedNtNtCs2oGb9mSlBjX_10serde_core2de9MapAccess15next_value_seedINtNtCs6joXTnudZij_4core6marker11PhantomDataNtCsaHGe17Pe3JB_8de_tests6SimpleEEB2z_
FN:262,_RINvXs5_NtCs5WJ3N3zt60z_6eu4txt2deNtB6_14CommaSeparatedNtNtCs2oGb9mSlBjX_10serde_core2de9MapAccess15next_value_seedINtNtCs6joXTnudZij_4core6marker11PhantomDataNtNtBT_11ignored_any10IgnoredAnyEECsaHGe17Pe3JB_8de_tests
FN:262,_RINvXs5_NtCs5WJ3N3zt60z_6eu4txt2deNtB6_14CommaSeparatedNtNtCs2oGb9mSlBjX_10serde_core2de9MapAccess15next_value_seedINtNtCs6joXTnudZij_4core6marker11PhantomDataNtNtCs2YhQnMI27q1_5alloc6string6StringEECsaHGe17Pe3JB_8de_tests
FN:262,_RINvXs5_NtCs5WJ3N3zt60z_6eu4txt2deNtB6_14CommaSeparatedNtNtCs2oGb9mSlBjX_10serde_core2de9MapAccess15next_value_seedINtNtCs6joXTnudZij_4core6marker11PhantomDatabEECsaHGe17Pe3JB_8de_tests
FN:262,_RINvXs5_NtCs5WJ3N3zt60z_6eu4txt2deNtB6_14CommaSeparatedNtNtCs2oGb9mSlBjX_10serde_core2de9MapAccess15next_value_seedINtNtCs6joXTnudZij_4core6marker11PhantomDatalEECsaHGe17Pe3JB_8de_tests
FN:27,_RNCINvNtCs5WJ3N3zt60z_6eu4txt2de9from_nodeNtCsaHGe17Pe3JB_8de_tests6NestedE0BG_
FN:27,_RNCINvNtCs5WJ3N3zt60z_6eu4txt2de9from_nodeNtCsaHGe17Pe3JB_8de_tests6SimpleE0BG_
FN:27,_RNCINvNtCs5WJ3N3zt60z_6eu4txt2de9from_nodeNtCsaHGe17Pe3JB_8de_tests8BoolTestE0BG_
FN:27,_RNCINvNtCs5WJ3N3zt60z_6eu4txt2de9from_nodeNtCsaHGe17Pe3JB_8de_tests8ListTestE0BG_
FN:66,_RNCINvXs2_NtCs5WJ3N3zt60z_6eu4txt2deQNtB8_12DeserializerNtNtCs2oGb9mSlBjX_10serde_core2de12Deserializer15deserialize_anyNtNtBU_11ignored_any10IgnoredAnyE0CsaHGe17Pe3JB_8de_tests
FN:66,_RNCINvXs2_NtCs5WJ3N3zt60z_6eu4txt2deQNtB8_12DeserializerNtNtCs2oGb9mSlBjX_10serde_core2de12Deserializer15deserialize_anyNtNvXNvCsaHGe17Pe3JB_8de_tests1__NtB21_6SimpleNtBU_11Deserialize11deserialize14___FieldVisitorE0B21_
FN:66,_RNCINvXs2_NtCs5WJ3N3zt60z_6eu4txt2deQNtB8_12DeserializerNtNtCs2oGb9mSlBjX_10serde_core2de12Deserializer15deserialize_anyNtNvXNvCsaHGe17Pe3JB_8de_testss0_1__NtB21_8ListTestNtBU_11Deserialize11deserialize14___FieldVisitorE0B21_
FN:66,_RNCINvXs2_NtCs5WJ3N3zt60z_6eu4txt2deQNtB8_12DeserializerNtNtCs2oGb9mSlBjX_10serde_core2de12Deserializer15deserialize_anyNtNvXNvCsaHGe17Pe3JB_8de_testss1_1__NtB21_6NestedNtBU_11Deserialize11deserialize14___FieldVisitorE0B21_
FN:66,_RNCINvXs2_NtCs5WJ3N3zt60z_6eu4txt2deQNtB8_12DeserializerNtNtCs2oGb9mSlBjX_10serde_core2de12Deserializer15deserialize_anyNtNvXNvCsaHGe17Pe3JB_8de_testss_1__NtB21_8BoolTestNtBU_11Deserialize11deserialize14___FieldVisitorE0B21_
FN:14,_RNvMNtCs5WJ3N3zt60z_6eu4txt2deNtB2_12Deserializer9from_node
FN:191,_RNvMs3_NtCs5WJ3N3zt60z_6eu4txt2deNtB5_14CommaSeparated3new
FN:35,_RNvXs_NtCs5WJ3N3zt60z_6eu4txt2deNtB4_5ErrorNtNtCs6joXTnudZij_4core3fmt7Display3fmt
FN:22,_RINvNtCs5WJ3N3zt60z_6eu4txt2de9from_nodepEB4_
FN:41,_RINvXs1_NtCs5WJ3N3zt60z_6eu4txt2deNtB6_5ErrorNtNtCs2oGb9mSlBjX_10serde_core2de5Error6custompEB8_
FN:49,_RINvXs2_NtCs5WJ3N3zt60z_6eu4txt2deQNtB6_12DeserializerNtNtCs2oGb9mSlBjX_10serde_core2de12Deserializer15deserialize_anypEB8_
FN:114,_RINvXs2_NtCs5WJ3N3zt60z_6eu4txt2deQNtB6_12DeserializerNtNtCs2oGb9mSlBjX_10serde_core2de12Deserializer15deserialize_f32pEB8_
FN:105,_RINvXs2_NtCs5WJ3N3zt60z_6eu4txt2deQNtB6_12DeserializerNtNtCs2oGb9mSlBjX_10serde_core2de12Deserializer15deserialize_i32pEB8_
FN:161,_RINvXs2_NtCs5WJ3N3zt60z_6eu4txt2deQNtB6_12DeserializerNtNtCs2oGb9mSlBjX_10serde_core2de12Deserializer15deserialize_mappEB8_
FN:142,_RINvXs2_NtCs5WJ3N3zt60z_6eu4txt2deQNtB6_12DeserializerNtNtCs2oGb9mSlBjX_10serde_core2de12Deserializer15deserialize_seqpEB8_
FN:125,_RINvXs2_NtCs5WJ3N3zt60z_6eu4txt2deQNtB6_12DeserializerNtNtCs2oGb9mSlBjX_10serde_core2de12Deserializer15deserialize_strpEB8_
FN:87,_RINvXs2_NtCs5WJ3N3zt60z_6eu4txt2deQNtB6_12DeserializerNtNtCs2oGb9mSlBjX_10serde_core2de12Deserializer16deserialize_boolpEB8_
FN:168,_RINvXs2_NtCs5WJ3N3zt60z_6eu4txt2deQNtB6_12DeserializerNtNtCs2oGb9mSlBjX_10serde_core2de12Deserializer18deserialize_optionpEB8_
FN:135,_RINvXs2_NtCs5WJ3N3zt60z_6eu4txt2deQNtB6_12DeserializerNtNtCs2oGb9mSlBjX_10serde_core2de12Deserializer18deserialize_stringpEB8_
FN:149,_RINvXs2_NtCs5WJ3N3zt60z_6eu4txt2deQNtB6_12DeserializerNtNtCs2oGb9mSlBjX_10serde_core2de12Deserializer18deserialize_structpEB8_
FN:199,_RINvXs4_NtCs5WJ3N3zt60z_6eu4txt2deNtB6_14CommaSeparatedNtNtCs2oGb9mSlBjX_10serde_core2de9SeqAccess17next_element_seedpEB8_
FN:220,_RINvXs5_NtCs5WJ3N3zt60z_6eu4txt2deNtB6_14CommaSeparatedNtNtCs2oGb9mSlBjX_10serde_core2de9MapAccess13next_key_seedpEB8_
FN:262,_RINvXs5_NtCs5WJ3N3zt60z_6eu4txt2deNtB6_14CommaSeparatedNtNtCs2oGb9mSlBjX_10serde_core2de9MapAccess15next_value_seedpEB8_
FN:27,_RNCINvNtCs5WJ3N3zt60z_6eu4txt2de9from_nodepE0B6_
FN:66,_RNCINvXs2_NtCs5WJ3N3zt60z_6eu4txt2deQNtB8_12DeserializerNtNtCs2oGb9mSlBjX_10serde_core2de12Deserializer15deserialize_anypE0Ba_
FN:22,_RINvNtCs5WJ3N3zt60z_6eu4txt2de9from_nodeNtCs3CepgdPYNPZ_7eu4data9TradegoodEBE_
FN:22,_RINvNtCs5WJ3N3zt60z_6eu4txt2de9from_nodeNtNtCs3CepgdPYNPZ_7eu4data7history15ProvinceHistoryEBG_
FN:22,_RINvNtCs5WJ3N3zt60z_6eu4txt2de9from_nodeNtNtCs3CepgdPYNPZ_7eu4data9countries7CountryEBG_
FN:41,_RINvXs1_NtCs5WJ3N3zt60z_6eu4txt2deNtB6_5ErrorNtNtCs2oGb9mSlBjX_10serde_core2de5Error6customNtNtCs6joXTnudZij_4core3fmt9ArgumentsECs3CepgdPYNPZ_7eu4data
FN:49,_RINvXs2_NtCs5WJ3N3zt60z_6eu4txt2deQNtB6_12DeserializerNtNtCs2oGb9mSlBjX_10serde_core2de12Deserializer15deserialize_anyNtNtBS_11ignored_any10IgnoredAnyECs3CepgdPYNPZ_7eu4data
FN:49,_RINvXs2_NtCs5WJ3N3zt60z_6eu4txt2deQNtB6_12DeserializerNtNtCs2oGb9mSlBjX_10serde_core2de12Deserializer15deserialize_anyNtNvXNtNtCsbw3WoEYoaD8_10serde_json5value2deNtB1Z_5ValueNtBS_11Deserialize11deserialize12ValueVisitorECs3CepgdPYNPZ_7eu4data
FN:49,_RINvXs2_NtCs5WJ3N3zt60z_6eu4txt2deQNtB6_12DeserializerNtNtCs2oGb9mSlBjX_10serde_core2de12Deserializer15deserialize_anyNtNvXNvCs3CepgdPYNPZ_7eu4data1__NtB1Z_9TradegoodNtBS_11Deserialize11deserialize14___FieldVisitorEB1Z_
FN:49,_RINvXs2_NtCs5WJ3N3zt60z_6eu4txt2deQNtB6_12DeserializerNtNtCs2oGb9mSlBjX_10serde_core2de12Deserializer15deserialize_anyNtNvXNvNtCs3CepgdPYNPZ_7eu4data7history1__NtB1Z_15ProvinceHistoryNtBS_11Deserialize11deserialize14___FieldVisitorEB21_
FN:49,_RINvXs2_NtCs5WJ3N3zt60z_6eu4txt2deQNtB6_12DeserializerNtNtCs2oGb9mSlBjX_10serde_core2de12Deserializer15deserialize_anyNtNvXNvNtCs3CepgdPYNPZ_7eu4data9countries1__NtB1Z_7CountryNtBS_11Deserialize11deserialize14___FieldVisitorEB21_
FN:49,_RINvXs2_NtCs5WJ3N3zt60z_6eu4txt2deQNtB6_12DeserializerNtNtCs2oGb9mSlBjX_10serde_core2de12Deserializer15deserialize_anyNtNvXsY_NtBS_5implshNtBS_11Deserialize11deserialize16PrimitiveVisitorECs3CepgdPYNPZ_7eu4data
FN:114,_RINvXs2_NtCs5WJ3N3zt60z_6eu4txt2deQNtB6_12DeserializerNtNtCs2oGb9mSlBjX_10serde_core2de12Deserializer15deserialize_f32NtNvXs1b_NtBS_5implsfNtBS_11Deserialize11deserialize16PrimitiveVisitorECs3CepgdPYNPZ_7eu4data
FN:161,_RINvXs2_NtCs5WJ3N3zt60z_6eu4txt2deQNtB6_12DeserializerNtNtCs2oGb9mSlBjX_10serde_core2de12Deserializer15deserialize_mapINtNvXs3e_NtBS_5implsINtNtNtNtCs9V5XLWeEmQj_3std11collections4hash3map7HashMappppENtBS_11Deserialize11deserialize10MapVisitorNtNtCs2YhQnMI27q1_5alloc6string6StringNtNtCsbw3WoEYoaD8_10serde_json5value5ValueNtNtNtB2m_4hash6random11RandomStateEECs3CepgdPYNPZ_7eu4data
FN:161,_RINvXs2_NtCs5WJ3N3zt60z_6eu4txt2deQNtB6_12DeserializerNtNtCs2oGb9mSlBjX_10serde_core2de12Deserializer15deserialize_mapINtNvXs3e_NtBS_5implsINtNtNtNtCs9V5XLWeEmQj_3std11collections4hash3map7HashMappppENtBS_11Deserialize11deserialize10MapVisitorNtNtCs2YhQnMI27q1_5alloc6string6StringfNtNtNtB2m_4hash6random11RandomStateEECs3CepgdPYNPZ_7eu4data
FN:161,_RINvXs2_NtCs5WJ3N3zt60z_6eu4txt2deQNtB6_12DeserializerNtNtCs2oGb9mSlBjX_10serde_core2de12Deserializer15deserialize_mapNtNtBS_11ignored_any10IgnoredAnyECs3CepgdPYNPZ_7eu4data
FN:161,_RINvXs2_NtCs5WJ3N3zt60z_6eu4txt2deQNtB6_12DeserializerNtNtCs2oGb9mSlBjX_10serde_core2de12Deserializer15deserialize_mapNtNvXNtNtCsbw3WoEYoaD8_10serde_json5value2deNtB1Z_5ValueNtBS_11Deserialize11deserialize12ValueVisitorECs3CepgdPYNPZ_7eu4data
FN:161,_RINvXs2_NtCs5WJ3N3zt60z_6eu4txt2deQNtB6_12DeserializerNtNtCs2oGb9mSlBjX_10serde_core2de12Deserializer15deserialize_mapNtNvXNvCs3CepgdPYNPZ_7eu4data1__NtB1Z_9TradegoodNtBS_11Deserialize11deserialize14___FieldVisitorEB1Z_
FN:161,_RINvXs2_NtCs5WJ3N3zt60z_6eu4txt2deQNtB6_12DeserializerNtNtCs2oGb9mSlBjX_10serde_core2de12Deserializer15deserialize_mapNtNvXNvCs3CepgdPYNPZ_7eu4data1__NtB1Z_9TradegoodNtBS_11Deserialize11deserialize9___VisitorEB1Z_
FN:161,_RINvXs2_NtCs5WJ3N3zt60z_6eu4txt2deQNtB6_12DeserializerNtNtCs2oGb9mSlBjX_10serde_core2de12Deserializer15deserialize_mapNtNvXNvNtCs3CepgdPYNPZ_7eu4data7history1__NtB1Z_15ProvinceHistoryNtBS_11Deserialize11deserialize14___FieldVisitorEB21_
FN:161,_RINvXs2_NtCs5WJ3N3zt60z_6eu4txt2deQNtB6_12DeserializerNtNtCs2oGb9mSlBjX_10serde_core2de12Deserializer15deserialize_mapNtNvXNvNtCs3CepgdPYNPZ_7eu4data7history1__NtB1Z_15ProvinceHistoryNtBS_11Deserialize11deserialize9___VisitorEB21_
FN:161,_RINvXs2_NtCs5WJ3N3zt60z_6eu4txt2deQNtB6_12DeserializerNtNtCs2oGb9mSlBjX_10serde_core2de12Deserializer15deserialize_mapNtNvXNvNtCs3CepgdPYNPZ_7eu4data9countries1__NtB1Z_7CountryNtBS_11Deserialize11deserialize14___FieldVisitorEB21_
FN:161,_RINvXs2_NtCs5WJ3N3zt60z_6eu4txt2deQNtB6_12DeserializerNtNtCs2oGb9mSlBjX_10serde_core2de12Deserializer15deserialize_mapNtNvXNvNtCs3CepgdPYNPZ_7eu4data9countries1__NtB1Z_7CountryNtBS_11Deserialize11deserialize9___VisitorEB21_
FN:161,_RINvXs2_NtCs5WJ3N3zt60z_6eu4txt2deQNtB6_12DeserializerNtNtCs2oGb9mSlBjX_10serde_core2de12Deserializer15deserialize_mapNtNvXsY_NtBS_5implshNtBS_11Deserialize11deserialize16PrimitiveVisitorECs3CepgdPYNPZ_7eu4data
FN:142,_RINvXs2_NtCs5WJ3N3zt60z_6eu4txt2deQNtB6_12DeserializerNtNtCs2oGb9mSlBjX_10serde_core2de12Deserializer15deserialize_seqINtNvXsh_NtBS_5implsINtNtCs2YhQnMI27q1_5alloc3vec3VecpENtBS_11Deserialize11deserialize10VecVisitorfEECs3CepgdPYNPZ_7eu4data
FN:142,_RINvXs2_NtCs5WJ3N3zt60z_6eu4txt2deQNtB6_12DeserializerNtNtCs2oGb9mSlBjX_10serde_core2de12Deserializer15deserialize_seqINtNvXsh_NtBS_5implsINtNtCs2YhQnMI27q1_5alloc3vec3VecpENtBS_11Deserialize11deserialize10VecVisitorhEECs3CepgdPYNPZ_7eu4data
FN:142,_RINvXs2_NtCs5WJ3N3zt60z_6eu4txt2deQNtB6_12DeserializerNtNtCs2oGb9mSlBjX_10serde_core2de12Deserializer15deserialize_seqNtNtBS_11ignored_any10IgnoredAnyECs3CepgdPYNPZ_7eu4data
FN:142,_RINvXs2_NtCs5WJ3N3zt60z_6eu4txt2deQNtB6_12DeserializerNtNtCs2oGb9mSlBjX_10serde_core2de12Deserializer15deserialize_seqNtNvXNtNtCsbw3WoEYoaD8_10serde_json5value2deNtB1Z_5ValueNtBS_11Deserialize11deserialize12ValueVisitorECs3CepgdPYNPZ_7eu4data
FN:142,_RINvXs2_NtCs5WJ3N3zt60z_6eu4txt2deQNtB6_12DeserializerNtNtCs2oGb9mSlBjX_10serde_core2de12Deserializer15deserialize_seqNtNvXNvCs3CepgdPYNPZ_7eu4data1__NtB1Z_9TradegoodNtBS_11Deserialize11deserialize14___FieldVisitorEB1Z_
FN:142,_RINvXs2_NtCs5WJ3N3zt60z_6eu4txt2deQNtB6_12DeserializerNtNtCs2oGb9mSlBjX_10serde_core2de12Deserializer15deserialize_seqNtNvXNvNtCs3CepgdPYNPZ_7eu4data7history1__NtB1Z_15ProvinceHistoryNtBS_11Deserialize11deserialize14___FieldVisitorEB21_
FN:142,_RINvXs2_NtCs5WJ3N3zt60z_6eu4txt2deQNtB6_12DeserializerNtNtCs2oGb9mSlBjX_10serde_core2de12Deserializer15deserialize_seqNtNvXNvNtCs3CepgdPYNPZ_7eu4data9countries1__NtB1Z_7CountryNtBS_11Deserialize11deserialize14___FieldVisitorEB21_
FN:142,_RINvXs2_NtCs5WJ3N3zt60z_6eu4txt2deQNtB6_12DeserializerNtNtCs2oGb9mSlBjX_10serde_core2de12Deserializer15deserialize_seqNtNvXsY_NtBS_5implshNtBS_11Deserialize11deserialize16PrimitiveVisitorECs3CepgdPYNPZ_7eu4data
FN:125,_RINvXs2_NtCs5WJ3N3zt60z_6eu4txt2deQNtB6_12DeserializerNtNtCs2oGb9mSlBjX_10serde_core2de12Deserializer15deserialize_strNtNtBS_5impls13StringVisitorECs3CepgdPYNPZ_7eu4data
FN:125,_RINvXs2_NtCs5WJ3N3zt60z_6eu4txt2deQNtB6_12DeserializerNtNtCs2oGb9mSlBjX_10serde_core2de12Deserializer15deserialize_strNtNtNtCsbw3WoEYoaD8_10serde_json5value2de13KeyClassifierECs3CepgdPYNPZ_7eu4data
FN:168,_RINvXs2_NtCs5WJ3N3zt60z_6eu4txt2deQNtB6_12DeserializerNtNtCs2oGb9mSlBjX_10serde_core2de12Deserializer18deserialize_optionINtNtBS_5impls13OptionVisitorINtNtNtNtCs9V5XLWeEmQj_3std11collections4hash3map7HashMapNtNtCs2YhQnMI27q1_5alloc6string6StringNtNtCsbw3WoEYoaD8_10serde_json5value5ValueEEECs3CepgdPYNPZ_7eu4data
FN:168,_RINvXs2_NtCs5WJ3N3zt60z_6eu4txt2deQNtB6_12DeserializerNtNtCs2oGb9mSlBjX_10serde_core2de12Deserializer18deserialize_optionINtNtBS_5impls13OptionVisitorINtNtNtNtCs9V5XLWeEmQj_3std11collections4hash3map7HashMapNtNtCs2YhQnMI27q1_5alloc6string6StringfEEECs3CepgdPYNPZ_7eu4data
FN:168,_RINvXs2_NtCs5WJ3N3zt60z_6eu4txt2deQNtB6_12DeserializerNtNtCs2oGb9mSlBjX_10serde_core2de12Deserializer18deserialize_optionINtNtBS_5impls13OptionVisitorNtNtCs2YhQnMI27q1_5alloc6string6StringEECs3CepgdPYNPZ_7eu4data
FN:168,_RINvXs2_NtCs5WJ3N3zt60z_6eu4txt2deQNtB6_12DeserializerNtNtCs2oGb9mSlBjX_10serde_core2de12Deserializer18deserialize_optionINtNtBS_5impls13OptionVisitorfEECs3CepgdPYNPZ_7eu4data
FN:135,_RINvXs2_NtCs5WJ3N3zt60z_6eu4txt2deQNtB6_12DeserializerNtNtCs2oGb9mSlBjX_10serde_core2de12Deserializer18deserialize_stringNtNtBS_5impls13StringVisitorECs3CepgdPYNPZ_7eu4data
FN:149,_RINvXs2_NtCs5WJ3N3zt60z_6eu4txt2deQNtB6_12DeserializerNtNtCs2oGb9mSlBjX_10serde_core2de12Deserializer18deserialize_structNtNvXNvCs3CepgdPYNPZ_7eu4data1__NtB22_9TradegoodNtBS_11Deserialize11deserialize9___VisitorEB22_
FN:149,_RINvXs2_NtCs5WJ3N3zt60z_6eu4txt2deQNtB6_12DeserializerNtNtCs2oGb9mSlBjX_10serde_core2de12Deserializer18deserialize_structNtNvXNvNtCs3CepgdPYNPZ_7eu4data7history1__NtB22_15ProvinceHistoryNtBS_11Deserialize11deserialize9___VisitorEB24_
FN:149,_RINvXs2_NtCs5WJ3N3zt60z_6eu4txt2deQNtB6_12DeserializerNtNtCs2oGb9mSlBjX_10serde_core2de12Deserializer18deserialize_structNtNvXNvNtCs3CepgdPYNPZ_7eu4data9countries1__NtB22_7CountryNtBS_11Deserialize11deserialize9___VisitorEB24_
FN:199,_RINvXs4_NtCs5WJ3N3zt60z_6eu4txt2deNtB6_14CommaSeparatedNtNtCs2oGb9mSlBjX_10serde_core2de9SeqAccess17next_element_seedINtNtCs6joXTnudZij_4core6marker11PhantomDataNtNtBT_11ignored_any10IgnoredAnyEECs3CepgdPYNPZ_7eu4data
FN:199,_RINvXs4_NtCs5WJ3N3zt60z_6eu4txt2deNtB6_14CommaSeparatedNtNtCs2oGb9mSlBjX_10serde_core2de9SeqAccess17next_element_seedINtNtCs6joXTnudZij_4core6marker11PhantomDataNtNtCsbw3WoEYoaD8_10serde_json5value5ValueEECs3CepgdPYNPZ_7eu4data
FN:199,_RINvXs4_NtCs5WJ3N3zt60z_6eu4txt2deNtB6_14CommaSeparatedNtNtCs2oGb9mSlBjX_10serde_core2de9SeqAccess17next_element_seedINtNtCs6joXTnudZij_4core6marker11PhantomDatafEECs3CepgdPYNPZ_7eu4data
FN:199,_RINvXs4_NtCs5WJ3N3zt60z_6eu4txt2deNtB6_14CommaSeparatedNtNtCs2oGb9mSlBjX_10serde_core2de9SeqAccess17next_element_seedINtNtCs6joXTnudZij_4core6marker11PhantomDatahEECs3CepgdPYNPZ_7eu4data
FN:220,_RINvXs5_NtCs5WJ3N3zt60z_6eu4txt2deNtB6_14CommaSeparatedNtNtCs2oGb9mSlBjX_10serde_core2de9MapAccess13next_key_seedINtNtCs6joXTnudZij_4core6marker11PhantomDataNtNtBT_11ignored_any10IgnoredAnyEECs3CepgdPYNPZ_7eu4data
FN:220,_RINvXs5_NtCs5WJ3N3zt60z_6eu4txt2deNtB6_14CommaSeparatedNtNtCs2oGb9mSlBjX_10serde_core2de9MapAccess13next_key_seedINtNtCs6joXTnudZij_4core6marker11PhantomDataNtNtCs2YhQnMI27q1_5alloc6string6StringEECs3CepgdPYNPZ_7eu4data
FN:220,_RINvXs5_NtCs5WJ3N3zt60z_6eu4txt2deNtB6_14CommaSeparatedNtNtCs2oGb9mSlBjX_10serde_core2de9MapAccess13next_key_seedINtNtCs6joXTnudZij_4core6marker11PhantomDataNtNvXNvCs3CepgdPYNPZ_7eu4data1__NtB2C_9TradegoodNtBT_11Deserialize11deserialize7___FieldEEB2C_
FN:220,_RINvXs5_NtCs5WJ3N3zt60z_6eu4txt2deNtB6_14CommaSeparatedNtNtCs2oGb9mSlBjX_10serde_core2de9MapAccess13next_key_seedINtNtCs6joXTnudZij_4core6marker11PhantomDataNtNvXNvNtCs3CepgdPYNPZ_7eu4data7history1__NtB2C_15ProvinceHistoryNtBT_11Deserialize11deserialize7___FieldEEB2E_
FN:220,_RINvXs5_NtCs5WJ3N3zt60z_6eu4txt2deNtB6_14CommaSeparatedNtNtCs2oGb9mSlBjX_10serde_core2de9MapAccess13next_key_seedINtNtCs6joXTnudZij_4core6marker11PhantomDataNtNvXNvNtCs3CepgdPYNPZ_7eu4data9countries1__NtB2C_7CountryNtBT_11Deserialize11deserialize7___FieldEEB2E_
FN:220,_RINvXs5_NtCs5WJ3N3zt60z_6eu4txt2deNtB6_14CommaSeparatedNtNtCs2oGb9mSlBjX_10serde_core2de9MapAccess13next_key_seedNtNtNtCsbw3WoEYoaD8_10serde_json5value2de13KeyClassifierECs3CepgdPYNPZ_7eu4data
FN:262,_RINvXs5_NtCs5WJ3N3zt60z_6eu4txt2deNtB6_14CommaSeparatedNtNtCs2oGb9mSlBjX_10serde_core2de9MapAccess15next_value_seedINtNtCs6joXTnudZij_4core6marker11PhantomDataINtNtB1U_6option6OptionINtNtNtNtCs9V5XLWeEmQj_3std11collections4hash3map7HashMapNtNtCs2YhQnMI27q1_5alloc6string6StringNtNtCsbw3WoEYoaD8_10serde_json5value5ValueEEEECs3CepgdPYNPZ_7eu4data
FN:262,_RINvXs5_NtCs5WJ3N3zt60z_6eu4txt2deNtB6_14CommaSeparatedNtNtCs2oGb9mSlBjX_10serde_core2de9MapAccess15next_value_seedINtNtCs6joXTnudZij_4core6marker11PhantomDataINtNtB1U_6option6OptionINtNtNtNtCs9V5XLWeEmQj_3std11collections4hash3map7HashMapNtNtCs2YhQnMI27q1_5alloc6string6StringfEEEECs3CepgdPYNPZ_7eu4data
FN:262,_RINvXs5_NtCs5WJ3N3zt60z_6eu4txt2deNtB6_14CommaSeparatedNtNtCs2oGb9mSlBjX_10serde_core2de9MapAccess15next_value_seedINtNtCs6joXTnudZij_4core6marker11PhantomDataINtNtB1U_6option6OptionNtNtCs2YhQnMI27q1_5alloc6string6StringEEECs3CepgdPYNPZ_7eu4data
FN:262,_RINvXs5_NtCs5WJ3N3zt60z_6eu4txt2deNtB6_14CommaSeparatedNtNtCs2oGb9mSlBjX_10serde_core2de9MapAccess15next_value_seedINtNtCs6joXTnudZij_4core6marker11PhantomDataINtNtB1U_6option6OptionfEEECs3CepgdPYNPZ_7eu4data
FN:262,_RINvXs5_NtCs5WJ3N3zt60z_6eu4txt2deNtB6_14CommaSeparatedNtNtCs2oGb9mSlBjX_10serde_core2de9MapAccess15next_value_seedINtNtCs6joXTnudZij_4core6marker11PhantomDataINtNtCs2YhQnMI27q1_5alloc3vec3VecfEEECs3CepgdPYNPZ_7eu4data
FN:262,_RINvXs5_NtCs5WJ3N3zt60z_6eu4txt2deNtB6_14CommaSeparatedNtNtCs2oGb9mSlBjX_10serde_core2de9MapAccess15next_value_seedINtNtCs6joXTnudZij_4core6marker11PhantomDataINtNtCs2YhQnMI27q1_5alloc3vec3VechEEECs3CepgdPYNPZ_7eu4data
FN:262,_RINvXs5_NtCs5WJ3N3zt60z_6eu4txt2deNtB6_14CommaSeparatedNtNtCs2oGb9mSlBjX_10serde_core2de9MapAccess15next_value_seedINtNtCs6joXTnudZij_4core6marker11PhantomDataINtNtNtNtCs9V5XLWeEmQj_3std11collections4hash3map7HashMapNtNtCs2YhQnMI27q1_5alloc6string6StringfEEECs3CepgdPYNPZ_7eu4data
FN:262,_RINvXs5_NtCs5WJ3N3zt60z_6eu4txt2deNtB6_14CommaSeparatedNtNtCs2oGb9mSlBjX_10serde_core2de9MapAccess15next_value_seedINtNtCs6joXTnudZij_4core6marker11PhantomDataNtNtBT_11ignored_any10IgnoredAnyEECs3CepgdPYNPZ_7eu4data
FN:262,_RINvXs5_NtCs5WJ3N3zt60z_6eu4txt2deNtB6_14CommaSeparatedNtNtCs2oGb9mSlBjX_10serde_core2de9MapAccess15next_value_seedINtNtCs6joXTnudZij_4core6marker11PhantomDataNtNtCsbw3WoEYoaD8_10serde_json5value5ValueEECs3CepgdPYNPZ_7eu4data
FN:262,_RINvXs5_NtCs5WJ3N3zt60z_6eu4txt2deNtB6_14CommaSeparatedNtNtCs2oGb9mSlBjX_10serde_core2de9MapAccess15next_value_seedINtNtCs6joXTnudZij_4core6marker11PhantomDatafEECs3CepgdPYNPZ_7eu4data
FN:27,_RNCINvNtCs5WJ3N3zt60z_6eu4txt2de9from_nodeNtCs3CepgdPYNPZ_7eu4data9TradegoodE0BG_
FN:27,_RNCINvNtCs5WJ3N3zt60z_6eu4txt2de9from_nodeNtNtCs3CepgdPYNPZ_7eu4data7history15ProvinceHistoryE0BI_
FN:27,_RNCINvNtCs5WJ3N3zt60z_6eu4txt2de9from_nodeNtNtCs3CepgdPYNPZ_7eu4data9countries7CountryE0BI_
FN:66,_RNCINvXs2_NtCs5WJ3N3zt60z_6eu4txt2deQNtB8_12DeserializerNtNtCs2oGb9mSlBjX_10serde_core2de12Deserializer15deserialize_anyNtNtBU_11ignored_any10IgnoredAnyE0Cs3CepgdPYNPZ_7eu4data
FN:66,_RNCINvXs2_NtCs5WJ3N3zt60z_6eu4txt2deQNtB8_12DeserializerNtNtCs2oGb9mSlBjX_10serde_core2de12Deserializer15deserialize_anyNtNvXNtNtCsbw3WoEYoaD8_10serde_json5value2deNtB21_5ValueNtBU_11Deserialize11deserialize12ValueVisitorE0Cs3CepgdPYNPZ_7eu4data
FN:66,_RNCINvXs2_NtCs5WJ3N3zt60z_6eu4txt2deQNtB8_12DeserializerNtNtCs2oGb9mSlBjX_10serde_core2de12Deserializer15deserialize_anyNtNvXNvCs3CepgdPYNPZ_7eu4data1__NtB21_9TradegoodNtBU_11Deserialize11deserialize14___FieldVisitorE0B21_
FN:66,_RNCINvXs2_NtCs5WJ3N3zt60z_6eu4txt2deQNtB8_12DeserializerNtNtCs2oGb9mSlBjX_10serde_core2de12Deserializer15deserialize_anyNtNvXNvNtCs3CepgdPYNPZ_7eu4data7history1__NtB21_15ProvinceHistoryNtBU_11Deserialize11deserialize14___FieldVisitorE0B23_
FN:66,_RNCINvXs2_NtCs5WJ3N3zt60z_6eu4txt2deQNtB8_12DeserializerNtNtCs2oGb9mSlBjX_10serde_core2de12Deserializer15deserialize_anyNtNvXNvNtCs3CepgdPYNPZ_7eu4data9countries1__NtB21_7CountryNtBU_11Deserialize11deserialize14___FieldVisitorE0B23_
FN:66,_RNCINvXs2_NtCs5WJ3N3zt60z_6eu4txt2deQNtB8_12DeserializerNtNtCs2oGb9mSlBjX_10serde_core2de12Deserializer15deserialize_anyNtNvXsY_NtBU_5implshNtBU_11Deserialize11deserialize16PrimitiveVisitorE0Cs3CepgdPYNPZ_7eu4data
FN:22,_RINvNtCs5WJ3N3zt60z_6eu4txt2de9from_nodeINtNtNtNtCs9V5XLWeEmQj_3std11collections4hash3map7HashMapNtNtCs2YhQnMI27q1_5alloc6string6StringNtCs1DvYjaJLFM2_7eu4data9TradegoodEECs1JhGRdf2CJD_5eu4rs
FN:22,_RINvNtCs5WJ3N3zt60z_6eu4txt2de9from_nodeNtNtCs1DvYjaJLFM2_7eu4data3map10DefaultMapECs1JhGRdf2CJD_5eu4rs
FN:49,_RINvXs2_NtCs5WJ3N3zt60z_6eu4txt2deQNtB6_12DeserializerNtNtCs2oGb9mSlBjX_10serde_core2de12Deserializer15deserialize_anyNtNvXNtNtCsbw3WoEYoaD8_10serde_json5value2deNtB1Z_5ValueNtBS_11Deserialize11deserialize12ValueVisitorECs1JhGRdf2CJD_5eu4rs
FN:49,_RINvXs2_NtCs5WJ3N3zt60z_6eu4txt2deQNtB6_12DeserializerNtNtCs2oGb9mSlBjX_10serde_core2de12Deserializer15deserialize_anyNtNvXNvCs1DvYjaJLFM2_7eu4data1__NtB1Z_9TradegoodNtBS_11Deserialize11deserialize14___FieldVisitorECs1JhGRdf2CJD_5eu4rs
FN:49,_RINvXs2_NtCs5WJ3N3zt60z_6eu4txt2deQNtB6_12DeserializerNtNtCs2oGb9mSlBjX_10serde_core2de12Deserializer15deserialize_anyNtNvXNvNtCs1DvYjaJLFM2_7eu4data3maps_1__NtB1Z_10DefaultMapNtBS_11Deserialize11deserialize14___FieldVisitorECs1JhGRdf2CJD_5eu4rs
FN:49,_RINvXs2_NtCs5WJ3N3zt60z_6eu4txt2deQNtB6_12DeserializerNtNtCs2oGb9mSlBjX_10serde_core2de12Deserializer15deserialize_anyNtNvXs14_NtBS_5implsmNtBS_11Deserialize11deserialize16PrimitiveVisitorECs1JhGRdf2CJD_5eu4rs
FN:161,_RINvXs2_NtCs5WJ3N3zt60z_6eu4txt2deQNtB6_12DeserializerNtNtCs2oGb9mSlBjX_10serde_core2de12Deserializer15deserialize_mapINtNvXs3e_NtBS_5implsINtNtNtNtCs9V5XLWeEmQj_3std11collections4hash3map7HashMappppENtBS_11Deserialize11deserialize10MapVisitorNtNtCs2YhQnMI27q1_5alloc6string6StringNtCs1DvYjaJLFM2_7eu4data9TradegoodNtNtNtB2m_4hash6random11RandomStateEECs1JhGRdf2CJD_5eu4rs
FN:161,_RINvXs2_NtCs5WJ3N3zt60z_6eu4txt2deQNtB6_12DeserializerNtNtCs2oGb9mSlBjX_10serde_core2de12Deserializer15deserialize_mapINtNvXs3e_NtBS_5implsINtNtNtNtCs9V5XLWeEmQj_3std11collections4hash3map7HashMappppENtBS_11Deserialize11deserialize10MapVisitorNtNtCs2YhQnMI27q1_5alloc6string6StringNtNtCsbw3WoEYoaD8_10serde_json5value5ValueNtNtNtB2m_4hash6random11RandomStateEECs1JhGRdf2CJD_5eu4rs
FN:161,_RINvXs2_NtCs5WJ3N3zt60z_6eu4txt2deQNtB6_12DeserializerNtNtCs2oGb9mSlBjX_10serde_core2de12Deserializer15deserialize_mapINtNvXs3e_NtBS_5implsINtNtNtNtCs9V5XLWeEmQj_3std11collections4hash3map7HashMappppENtBS_11Deserialize11deserialize10MapVisitorNtNtCs2YhQnMI27q1_5alloc6string6StringfNtNtNtB2m_4hash6random11RandomStateEECs1JhGRdf2CJD_5eu4rs
FN:161,_RINvXs2_NtCs5WJ3N3zt60z_6eu4txt2deQNtB6_12DeserializerNtNtCs2oGb9mSlBjX_10serde_core2de12Deserializer15deserialize_mapNtNvXNtNtCsbw3WoEYoaD8_10serde_json5value2deNtB1Z_5ValueNtBS_11Deserialize11deserialize12ValueVisitorECs1JhGRdf2CJD_5eu4rs
FN:161,_RINvXs2_NtCs5WJ3N3zt60z_6eu4txt2deQNtB6_12DeserializerNtNtCs2oGb9mSlBjX_10serde_core2de12Deserializer15deserialize_mapNtNvXNvCs1DvYjaJLFM2_7eu4data1__NtB1Z_9TradegoodNtBS_11Deserialize11deserialize14___FieldVisitorECs1JhGRdf2CJD_5eu4rs
FN:161,_RINvXs2_NtCs5WJ3N3zt60z_6eu4txt2deQNtB6_12DeserializerNtNtCs2oGb9mSlBjX_10serde_core2de12Deserializer15deserialize_mapNtNvXNvCs1DvYjaJLFM2_7eu4data1__NtB1Z_9TradegoodNtBS_11Deserialize11deserialize9___VisitorECs1JhGRdf2CJD_5eu4rs
FN:161,_RINvXs2_NtCs5WJ3N3zt60z_6eu4txt2deQNtB6_12DeserializerNtNtCs2oGb9mSlBjX_10serde_core2de12Deserializer15deserialize_mapNtNvXNvNtCs1DvYjaJLFM2_7eu4data3maps_1__NtB1Z_10DefaultMapNtBS_11Deserialize11deserialize14___FieldVisitorECs1JhGRdf2CJD_5eu4rs
FN:161,_RINvXs2_NtCs5WJ3N3zt60z_6eu4txt2deQNtB6_12DeserializerNtNtCs2oGb9mSlBjX_10serde_core2de12Deserializer15deserialize_mapNtNvXNvNtCs1DvYjaJLFM2_7eu4data3maps_1__NtB1Z_10DefaultMapNtBS_11Deserialize11deserialize9___VisitorECs1JhGRdf2CJD_5eu4rs
FN:161,_RINvXs2_NtCs5WJ3N3zt60z_6eu4txt2deQNtB6_12DeserializerNtNtCs2oGb9mSlBjX_10serde_core2de12Deserializer15deserialize_mapNtNvXs14_NtBS_5implsmNtBS_11Deserialize11deserialize16PrimitiveVisitorECs1JhGRdf2CJD_5eu4rs
FN:142,_RINvXs2_NtCs5WJ3N3zt60z_6eu4txt2deQNtB6_12DeserializerNtNtCs2oGb9mSlBjX_10serde_core2de12Deserializer15deserialize_seqINtNvXsh_NtBS_5implsINtNtCs2YhQnMI27q1_5alloc3vec3VecpENtBS_11Deserialize11deserialize10VecVisitorfEECs1JhGRdf2CJD_5eu4rs
FN:142,_RINvXs2_NtCs5WJ3N3zt60z_6eu4txt2deQNtB6_12DeserializerNtNtCs2oGb9mSlBjX_10serde_core2de12Deserializer15deserialize_seqINtNvXsh_NtBS_5implsINtNtCs2YhQnMI27q1_5alloc3vec3VecpENtBS_11Deserialize11deserialize10VecVisitormEECs1JhGRdf2CJD_5eu4rs
FN:142,_RINvXs2_NtCs5WJ3N3zt60z_6eu4txt2deQNtB6_12DeserializerNtNtCs2oGb9mSlBjX_10serde_core2de12Deserializer15deserialize_seqNtNvXNtNtCsbw3WoEYoaD8_10serde_json5value2deNtB1Z_5ValueNtBS_11Deserialize11deserialize12ValueVisitorECs1JhGRdf2CJD_5eu4rs
FN:142,_RINvXs2_NtCs5WJ3N3zt60z_6eu4txt2deQNtB6_12DeserializerNtNtCs2oGb9mSlBjX_10serde_core2de12Deserializer15deserialize_seqNtNvXNvCs1DvYjaJLFM2_7eu4data1__NtB1Z_9TradegoodNtBS_11Deserialize11deserialize14___FieldVisitorECs1JhGRdf2CJD_5eu4rs
FN:142,_RINvXs2_NtCs5WJ3N3zt60z_6eu4txt2deQNtB6_12DeserializerNtNtCs2oGb9mSlBjX_10serde_core2de12Deserializer15deserialize_seqNtNvXNvNtCs1DvYjaJLFM2_7eu4data3maps_1__NtB1Z_10DefaultMapNtBS_11Deserialize11deserialize14___FieldVisitorECs1JhGRdf2CJD_5eu4rs
FN:142,_RINvXs2_NtCs5WJ3N3zt60z_6eu4txt2deQNtB6_12DeserializerNtNtCs2oGb9mSlBjX_10serde_core2de12Deserializer15deserialize_seqNtNvXs14_NtBS_5implsmNtBS_11Deserialize11deserialize16PrimitiveVisitorECs1JhGRdf2CJD_5eu4rs
FN:125,_RINvXs2_NtCs5WJ3N3zt60z_6eu4txt2deQNtB6_12DeserializerNtNtCs2oGb9mSlBjX_10serde_core2de12Deserializer15deserialize_strNtNtNtCsbw3WoEYoaD8_10serde_json5value2de13KeyClassifierECs1JhGRdf2CJD_5eu4rs
FN:168,_RINvXs2_NtCs5WJ3N3zt60z_6eu4txt2deQNtB6_12DeserializerNtNtCs2oGb9mSlBjX_10serde_core2de12Deserializer18deserialize_optionINtNtBS_5impls13OptionVisitorINtNtNtNtCs9V5XLWeEmQj_3std11collections4hash3map7HashMapNtNtCs2YhQnMI27q1_5alloc6string6StringNtNtCsbw3WoEYoaD8_10serde_json5value5ValueEEECs1JhGRdf2CJD_5eu4rs
FN:168,_RINvXs2_NtCs5WJ3N3zt60z_6eu4txt2deQNtB6_12DeserializerNtNtCs2oGb9mSlBjX_10serde_core2de12Deserializer18deserialize_optionINtNtBS_5impls13OptionVisitorINtNtNtNtCs9V5XLWeEmQj_3std11collections4hash3map7HashMapNtNtCs2YhQnMI27q1_5alloc6string6StringfEEECs1JhGRdf2CJD_5eu4rs
FN:149,_RINvXs2_NtCs5WJ3N3zt60z_6eu4txt2deQNtB6_12DeserializerNtNtCs2oGb9mSlBjX_10serde_core2de12Deserializer18deserialize_structNtNvXNvCs1DvYjaJLFM2_7eu4data1__NtB22_9TradegoodNtBS_11Deserialize11deserialize9___VisitorECs1JhGRdf2CJD_5eu4rs
FN:149,_RINvXs2_NtCs5WJ3N3zt60z_6eu4txt2deQNtB6_12DeserializerNtNtCs2oGb9mSlBjX_10serde_core2de12Deserializer18deserialize_structNtNvXNvNtCs1DvYjaJLFM2_7eu4data3maps_1__NtB22_10DefaultMapNtBS_11Deserialize11deserialize9___VisitorECs1JhGRdf2CJD_5eu4rs
FN:199,_RINvXs4_NtCs5WJ3N3zt60z_6eu4txt2deNtB6_14CommaSeparatedNtNtCs2oGb9mSlBjX_10serde_core2de9SeqAccess17next_element_seedINtNtCs6joXTnudZij_4core6marker11PhantomDataNtNtCsbw3WoEYoaD8_10serde_json5value5ValueEECs1JhGRdf2CJD_5eu4rs
FN:199,_RINvXs4_NtCs5WJ3N3zt60z_6eu4txt2deNtB6_14CommaSeparatedNtNtCs2oGb9mSlBjX_10serde_core2de9SeqAccess17next_element_seedINtNtCs6joXTnudZij_4core6marker11PhantomDatafEECs1JhGRdf2CJD_5eu4rs
FN:199,_RINvXs4_NtCs5WJ3N3zt60z_6eu4txt2deNtB6_14CommaSeparatedNtNtCs2oGb9mSlBjX_10serde_core2de9SeqAccess17next_element_seedINtNtCs6joXTnudZij_4core6marker11PhantomDatamEECs1JhGRdf2CJD_5eu4rs
FN:220,_RINvXs5_NtCs5WJ3N3zt60z_6eu4txt2deNtB6_14CommaSeparatedNtNtCs2oGb9mSlBjX_10serde_core2de9MapAccess13next_key_seedINtNtCs6joXTnudZij_4core6marker11PhantomDataNtNtCs2YhQnMI27q1_5alloc6string6StringEECs1JhGRdf2CJD_5eu4rs
FN:220,_RINvXs5_NtCs5WJ3N3zt60z_6eu4txt2deNtB6_14CommaSeparatedNtNtCs2oGb9mSlBjX_10serde_core2de9MapAccess13next_key_seedINtNtCs6joXTnudZij_4core6marker11PhantomDataNtNvXNvCs1DvYjaJLFM2_7eu4data1__NtB2C_9TradegoodNtBT_11Deserialize11deserialize7___FieldEECs1JhGRdf2CJD_5eu4rs
FN:220,_RINvXs5_NtCs5WJ3N3zt60z_6eu4txt2deNtB6_14CommaSeparatedNtNtCs2oGb9mSlBjX_10serde_core2de9MapAccess13next_key_seedINtNtCs6joXTnudZij_4core6marker11PhantomDataNtNvXNvNtCs1DvYjaJLFM2_7eu4data3maps_1__NtB2C_10DefaultMapNtBT_11Deserialize11deserialize7___FieldEECs1JhGRdf2CJD_5eu4rs
FN:220,_RINvXs5_NtCs5WJ3N3zt60z_6eu4txt2deNtB6_14CommaSeparatedNtNtCs2oGb9mSlBjX_10serde_core2de9MapAccess13next_key_seedNtNtNtCsbw3WoEYoaD8_10serde_json5value2de13KeyClassifierECs1JhGRdf2CJD_5eu4rs
FN:262,_RINvXs5_NtCs5WJ3N3zt60z_6eu4txt2deNtB6_14CommaSeparatedNtNtCs2oGb9mSlBjX_10serde_core2de9MapAccess15next_value_seedINtNtCs6joXTnudZij_4core6marker11PhantomDataINtNtB1U_6option6OptionINtNtNtNtCs9V5XLWeEmQj_3std11collections4hash3map7HashMapNtNtCs2YhQnMI27q1_5alloc6string6StringNtNtCsbw3WoEYoaD8_10serde_json5value5ValueEEEECs1JhGRdf2CJD_5eu4rs
FN:262,_RINvXs5_NtCs5WJ3N3zt60z_6eu4txt2deNtB6_14CommaSeparatedNtNtCs2oGb9mSlBjX_10serde_core2de9MapAccess15next_value_seedINtNtCs6joXTnudZij_4core6marker11PhantomDataINtNtB1U_6option6OptionINtNtNtNtCs9V5XLWeEmQj_3std11collections4hash3map7HashMapNtNtCs2YhQnMI27q1_5alloc6string6StringfEEEECs1JhGRdf2CJD_5eu4rs
FN:262,_RINvXs5_NtCs5WJ3N3zt60z_6eu4txt2deNtB6_14CommaSeparatedNtNtCs2oGb9mSlBjX_10serde_core2de9MapAccess15next_value_seedINtNtCs6joXTnudZij_4core6marker11PhantomDataINtNtCs2YhQnMI27q1_5alloc3vec3VecfEEECs1JhGRdf2CJD_5eu4rs
FN:262,_RINvXs5_NtCs5WJ3N3zt60z_6eu4txt2deNtB6_14CommaSeparatedNtNtCs2oGb9mSlBjX_10serde_core2de9MapAccess15next_value_seedINtNtCs6joXTnudZij_4core6marker11PhantomDataINtNtCs2YhQnMI27q1_5alloc3vec3VecmEEECs1JhGRdf2CJD_5eu4rs
FN:262,_RINvXs5_NtCs5WJ3N3zt60z_6eu4txt2deNtB6_14CommaSeparatedNtNtCs2oGb9mSlBjX_10serde_core2de9MapAccess15next_value_seedINtNtCs6joXTnudZij_4core6marker11PhantomDataINtNtNtNtCs9V5XLWeEmQj_3std11collections4hash3map7HashMapNtNtCs2YhQnMI27q1_5alloc6string6StringfEEECs1JhGRdf2CJD_5eu4rs
FN:262,_RINvXs5_NtCs5WJ3N3zt60z_6eu4txt2deNtB6_14CommaSeparatedNtNtCs2oGb9mSlBjX_10serde_core2de9MapAccess15next_value_seedINtNtCs6joXTnudZij_4core6marker11PhantomDataNtCs1DvYjaJLFM2_7eu4data9TradegoodEECs1JhGRdf2CJD_5eu4rs
FN:262,_RINvXs5_NtCs5WJ3N3zt60z_6eu4txt2deNtB6_14CommaSeparatedNtNtCs2oGb9mSlBjX_10serde_core2de9MapAccess15next_value_seedINtNtCs6joXTnudZij_4core6marker11PhantomDataNtNtCsbw3WoEYoaD8_10serde_json5value5ValueEECs1JhGRdf2CJD_5eu4rs
FN:262,_RINvXs5_NtCs5WJ3N3zt60z_6eu4txt2deNtB6_14CommaSeparatedNtNtCs2oGb9mSlBjX_10serde_core2de9MapAccess15next_value_seedINtNtCs6joXTnudZij_4core6marker11PhantomDatafEECs1JhGRdf2CJD_5eu4rs
FN:27,_RNCINvNtCs5WJ3N3zt60z_6eu4txt2de9from_nodeINtNtNtNtCs9V5XLWeEmQj_3std11collections4hash3map7HashMapNtNtCs2YhQnMI27q1_5alloc6string6StringNtCs1DvYjaJLFM2_7eu4data9TradegoodEE0Cs1JhGRdf2CJD_5eu4rs
FN:27,_RNCINvNtCs5WJ3N3zt60z_6eu4txt2de9from_nodeNtNtCs1DvYjaJLFM2_7eu4data3map10DefaultMapE0Cs1JhGRdf2CJD_5eu4rs
FN:66,_RNCINvXs2_NtCs5WJ3N3zt60z_6eu4txt2deQNtB8_12DeserializerNtNtCs2oGb9mSlBjX_10serde_core2de12Deserializer15deserialize_anyNtNvXNtNtCsbw3WoEYoaD8_10serde_json5value2deNtB21_5ValueNtBU_11Deserialize11deserialize12ValueVisitorE0Cs1JhGRdf2CJD_5eu4rs
FN:66,_RNCINvXs2_NtCs5WJ3N3zt60z_6eu4txt2deQNtB8_12DeserializerNtNtCs2oGb9mSlBjX_10serde_core2de12Deserializer15deserialize_anyNtNvXNvCs1DvYjaJLFM2_7eu4data1__NtB21_9TradegoodNtBU_11Deserialize11deserialize14___FieldVisitorE0Cs1JhGRdf2CJD_5eu4rs
FN:66,_RNCINvXs2_NtCs5WJ3N3zt60z_6eu4txt2deQNtB8_12DeserializerNtNtCs2oGb9mSlBjX_10serde_core2de12Deserializer15deserialize_anyNtNvXNvNtCs1DvYjaJLFM2_7eu4data3maps_1__NtB21_10DefaultMapNtBU_11Deserialize11deserialize14___FieldVisitorE0Cs1JhGRdf2CJD_5eu4rs
FN:66,_RNCINvXs2_NtCs5WJ3N3zt60z_6eu4txt2deQNtB8_12DeserializerNtNtCs2oGb9mSlBjX_10serde_core2de12Deserializer15deserialize_anyNtNvXs14_NtBU_5implsmNtBU_11Deserialize11deserialize16PrimitiveVisitorE0Cs1JhGRdf2CJD_5eu4rs
FN:22,_RINvNtCs5WJ3N3zt60z_6eu4txt2de9from_nodeNtNtCs1DvYjaJLFM2_7eu4data7history15ProvinceHistoryEBG_
FN:22,_RINvNtCs5WJ3N3zt60z_6eu4txt2de9from_nodeNtNtCs1DvYjaJLFM2_7eu4data9countries7CountryEBG_
FN:41,_RINvXs1_NtCs5WJ3N3zt60z_6eu4txt2deNtB6_5ErrorNtNtCs2oGb9mSlBjX_10serde_core2de5Error6customNtNtCs6joXTnudZij_4core3fmt9ArgumentsECs1DvYjaJLFM2_7eu4data
FN:49,_RINvXs2_NtCs5WJ3N3zt60z_6eu4txt2deQNtB6_12DeserializerNtNtCs2oGb9mSlBjX_10serde_core2de12Deserializer15deserialize_anyNtNtBS_11ignored_any10IgnoredAnyECs1DvYjaJLFM2_7eu4data
FN:49,_RINvXs2_NtCs5WJ3N3zt60z_6eu4txt2deQNtB6_12DeserializerNtNtCs2oGb9mSlBjX_10serde_core2de12Deserializer15deserialize_anyNtNvXNvNtCs1DvYjaJLFM2_7eu4data7history1__NtB1Z_15ProvinceHistoryNtBS_11Deserialize11deserialize14___FieldVisitorEB21_
FN:49,_RINvXs2_NtCs5WJ3N3zt60z_6eu4txt2deQNtB6_12DeserializerNtNtCs2oGb9mSlBjX_10serde_core2de12Deserializer15deserialize_anyNtNvXNvNtCs1DvYjaJLFM2_7eu4data9countries1__NtB1Z_7CountryNtBS_11Deserialize11deserialize14___FieldVisitorEB21_
FN:49,_RINvXs2_NtCs5WJ3N3zt60z_6eu4txt2deQNtB6_12DeserializerNtNtCs2oGb9mSlBjX_10serde_core2de12Deserializer15deserialize_anyNtNvXsY_NtBS_5implshNtBS_11Deserialize11deserialize16PrimitiveVisitorECs1DvYjaJLFM2_7eu4data
FN:114,_RINvXs2_NtCs5WJ3N3zt60z_6eu4txt2deQNtB6_12DeserializerNtNtCs2oGb9mSlBjX_10serde_core2de12Deserializer15deserialize_f32NtNvXs1b_NtBS_5implsfNtBS_11Deserialize11deserialize16PrimitiveVisitorECs1DvYjaJLFM2_7eu4data
FN:161,_RINvXs2_NtCs5WJ3N3zt60z_6eu4txt2deQNtB6_12DeserializerNtNtCs2oGb9mSlBjX_10serde_core2de12Deserializer15deserialize_mapNtNtBS_11ignored_any10IgnoredAnyECs1DvYjaJLFM2_7eu4data
FN:161,_RINvXs2_NtCs5WJ3N3zt60z_6eu4txt2deQNtB6_12DeserializerNtNtCs2oGb9mSlBjX_10serde_core2de12Deserializer15deserialize_mapNtNvXNvNtCs1DvYjaJLFM2_7eu4data7history1__NtB1Z_15ProvinceHistoryNtBS_11Deserialize11deserialize14___FieldVisitorEB21_
FN:161,_RINvXs2_NtCs5WJ3N3zt60z_6eu4txt2deQNtB6_12DeserializerNtNtCs2oGb9mSlBjX_10serde_core2de12Deserializer15deserialize_mapNtNvXNvNtCs1DvYjaJLFM2_7eu4data7history1__NtB1Z_15ProvinceHistoryNtBS_11Deserialize11deserialize9___VisitorEB21_
FN:161,_RINvXs2_NtCs5WJ3N3zt60z_6eu4txt2deQNtB6_12DeserializerNtNtCs2oGb9mSlBjX_10serde_core2de12Deserializer15deserialize_mapNtNvXNvNtCs1DvYjaJLFM2_7eu4data9countries1__NtB1Z_7CountryNtBS_11Deserialize11deserialize14___FieldVisitorEB21_
FN:161,_RINvXs2_NtCs5WJ3N3zt60z_6eu4txt2deQNtB6_12DeserializerNtNtCs2oGb9mSlBjX_10serde_core2de12Deserializer15deserialize_mapNtNvXNvNtCs1DvYjaJLFM2_7eu4data9countries1__NtB1Z_7CountryNtBS_11Deserialize11deserialize9___VisitorEB21_
FN:161,_RINvXs2_NtCs5WJ3N3zt60z_6eu4txt2deQNtB6_12DeserializerNtNtCs2oGb9mSlBjX_10serde_core2de12Deserializer15deserialize_mapNtNvXsY_NtBS_5implshNtBS_11Deserialize11deserialize16PrimitiveVisitorECs1DvYjaJLFM2_7eu4data
FN:142,_RINvXs2_NtCs5WJ3N3zt60z_6eu4txt2deQNtB6_12DeserializerNtNtCs2oGb9mSlBjX_10serde_core2de12Deserializer15deserialize_seqINtNvXsh_NtBS_5implsINtNtCs2YhQnMI27q1_5alloc3vec3VecpENtBS_11Deserialize11deserialize10VecVisitorhEECs1DvYjaJLFM2_7eu4data
FN:142,_RINvXs2_NtCs5WJ3N3zt60z_6eu4txt2deQNtB6_12DeserializerNtNtCs2oGb9mSlBjX_10serde_core2de12Deserializer15deserialize_seqNtNtBS_11ignored_any10IgnoredAnyECs1DvYjaJLFM2_7eu4data
FN:142,_RINvXs2_NtCs5WJ3N3zt60z_6eu4txt2deQNtB6_12DeserializerNtNtCs2oGb9mSlBjX_10serde_core2de12Deserializer15deserialize_seqNtNvXNvNtCs1DvYjaJLFM2_7eu4data7history1__NtB1Z_15ProvinceHistoryNtBS_11Deserialize11deserialize14___FieldVisitorEB21_
FN:142,_RINvXs2_NtCs5WJ3N3zt60z_6eu4txt2deQNtB6_12DeserializerNtNtCs2oGb9mSlBjX_10serde_core2de12Deserializer15deserialize_seqNtNvXNvNtCs1DvYjaJLFM2_7eu4data9countries1__NtB1Z_7CountryNtBS_11Deserialize11deserialize14___FieldVisitorEB21_
FN:142,_RINvXs2_NtCs5WJ3N3zt60z_6eu4txt2deQNtB6_12DeserializerNtNtCs2oGb9mSlBjX_10serde_core2de12Deserializer15deserialize_seqNtNvXsY_NtBS_5implshNtBS_11Deserialize11deserialize16PrimitiveVisitorECs1DvYjaJLFM2_7eu4data
FN:125,_RINvXs2_NtCs5WJ3N3zt60z_6eu4txt2deQNtB6_12DeserializerNtNtCs2oGb9mSlBjX_10serde_core2de12Deserializer15deserialize_strNtNtBS_5impls13StringVisitorECs1DvYjaJLFM2_7eu4data
FN:168,_RINvXs2_NtCs5WJ3N3zt60z_6eu4txt2deQNtB6_12DeserializerNtNtCs2oGb9mSlBjX_10serde_core2de12Deserializer18deserialize_optionINtNtBS_5impls13OptionVisitorNtNtCs2YhQnMI27q1_5alloc6string6StringEECs1DvYjaJLFM2_7eu4data
FN:168,_RINvXs2_NtCs5WJ3N3zt60z_6eu4txt2deQNtB6_12DeserializerNtNtCs2oGb9mSlBjX_10serde_core2de12Deserializer18deserialize_optionINtNtBS_5impls13OptionVisitorfEECs1DvYjaJLFM2_7eu4data
FN:135,_RINvXs2_NtCs5WJ3N3zt60z_6eu4txt2deQNtB6_12DeserializerNtNtCs2oGb9mSlBjX_10serde_core2de12Deserializer18deserialize_stringNtNtBS_5impls13StringVisitorECs1DvYjaJLFM2_7eu4data
FN:149,_RINvXs2_NtCs5WJ3N3zt60z_6eu4txt2deQNtB6_12DeserializerNtNtCs2oGb9mSlBjX_10serde_core2de12Deserializer18deserialize_structNtNvXNvNtCs1DvYjaJLFM2_7eu4data7history1__NtB22_15ProvinceHistoryNtBS_11Deserialize11deserialize9___VisitorEB24_
FN:149,_RINvXs2_NtCs5WJ3N3zt60z_6eu4txt2deQNtB6_12DeserializerNtNtCs2oGb9mSlBjX_10serde_core2de12Deserializer18deserialize_structNtNvXNvNtCs1DvYjaJLFM2_7eu4data9countries1__NtB22_7CountryNtBS_11Deserialize11deserialize9___VisitorEB24_
FN:199,_RINvXs4_NtCs5WJ3N3zt60z_6eu4txt2deNtB6_14CommaSeparatedNtNtCs2oGb9mSlBjX_10serde_core2de9SeqAccess17next_element_seedINtNtCs6joXTnudZij_4core6marker11PhantomDataNtNtBT_11ignored_any10IgnoredAnyEECs1DvYjaJLFM2_7eu4data
FN:199,_RINvXs4_NtCs5WJ3N3zt60z_6eu4txt2deNtB6_14CommaSeparatedNtNtCs2oGb9mSlBjX_10serde_core2de9SeqAccess17next_element_seedINtNtCs6joXTnudZij_4core6marker11PhantomDatahEECs1DvYjaJLFM2_7eu4data
FN:220,_RINvXs5_NtCs5WJ3N3zt60z_6eu4txt2deNtB6_14CommaSeparatedNtNtCs2oGb9mSlBjX_10serde_core2de9MapAccess13next_key_seedINtNtCs6joXTnudZij_4core6marker11PhantomDataNtNtBT_11ignored_any10IgnoredAnyEECs1DvYjaJLFM2_7eu4data
FN:220,_RINvXs5_NtCs5WJ3N3zt60z_6eu4txt2deNtB6_14CommaSeparatedNtNtCs2oGb9mSlBjX_10serde_core2de9MapAccess13next_key_seedINtNtCs6joXTnudZij_4core6marker11PhantomDataNtNvXNvNtCs1DvYjaJLFM2_7eu4data7history1__NtB2C_15ProvinceHistoryNtBT_11Deserialize11deserialize7___FieldEEB2E_
FN:220,_RINvXs5_NtCs5WJ3N3zt60z_6eu4txt2deNtB6_14CommaSeparatedNtNtCs2oGb9mSlBjX_10serde_core2de9MapAccess13next_key_seedINtNtCs6joXTnudZij_4core6marker11PhantomDataNtNvXNvNtCs1DvYjaJLFM2_7eu4data9countries1__NtB2C_7CountryNtBT_11Deserialize11deserialize7___FieldEEB2E_
FN:262,_RINvXs5_NtCs5WJ3N3zt60z_6eu4txt2deNtB6_14CommaSeparatedNtNtCs2oGb9mSlBjX_10serde_core2de9MapAccess15next_value_seedINtNtCs6joXTnudZij_4core6marker11PhantomDataINtNtB1U_6option6OptionNtNtCs2YhQnMI27q1_5alloc6string6StringEEECs1DvYjaJLFM2_7eu4data
FN:262,_RINvXs5_NtCs5WJ3N3zt60z_6eu4txt2deNtB6_14CommaSeparatedNtNtCs2oGb9mSlBjX_10serde_core2de9MapAccess15next_value_seedINtNtCs6joXTnudZij_4core6marker11PhantomDataINtNtB1U_6option6OptionfEEECs1DvYjaJLFM2_7eu4data
FN:262,_RINvXs5_NtCs5WJ3N3zt60z_6eu4txt2deNtB6_14CommaSeparatedNtNtCs2oGb9mSlBjX_10serde_core2de9MapAccess15next_value_seedINtNtCs6joXTnudZij_4core6marker11PhantomDataINtNtCs2YhQnMI27q1_5alloc3vec3VechEEECs1DvYjaJLFM2_7eu4data
FN:262,_RINvXs5_NtCs5WJ3N3zt60z_6eu4txt2deNtB6_14CommaSeparatedNtNtCs2oGb9mSlBjX_10serde_core2de9MapAccess15next_value_seedINtNtCs6joXTnudZij_4core6marker11PhantomDataNtNtBT_11ignored_any10IgnoredAnyEECs1DvYjaJLFM2_7eu4data
FN:27,_RNCINvNtCs5WJ3N3zt60z_6eu4txt2de9from_nodeNtNtCs1DvYjaJLFM2_7eu4data7history15ProvinceHistoryE0BI_
FN:27,_RNCINvNtCs5WJ3N3zt60z_6eu4txt2de9from_nodeNtNtCs1DvYjaJLFM2_7eu4data9countries7CountryE0BI_
FN:66,_RNCINvXs2_NtCs5WJ3N3zt60z_6eu4txt2deQNtB8_12DeserializerNtNtCs2oGb9mSlBjX_10serde_core2de12Deserializer15deserialize_anyNtNtBU_11ignored_any10IgnoredAnyE0Cs1DvYjaJLFM2_7eu4data
FN:66,_RNCINvXs2_NtCs5WJ3N3zt60z_6eu4txt2deQNtB8_12DeserializerNtNtCs2oGb9mSlBjX_10serde_core2de12Deserializer15deserialize_anyNtNvXNvNtCs1DvYjaJLFM2_7eu4data7history1__NtB21_15ProvinceHistoryNtBU_11Deserialize11deserialize14___FieldVisitorE0B23_
FN:66,_RNCINvXs2_NtCs5WJ3N3zt60z_6eu4txt2deQNtB8_12DeserializerNtNtCs2oGb9mSlBjX_10serde_core2de12Deserializer15deserialize_anyNtNvXNvNtCs1DvYjaJLFM2_7eu4data9countries1__NtB21_7CountryNtBU_11Deserialize11deserialize14___FieldVisitorE0B23_
FN:66,_RNCINvXs2_NtCs5WJ3N3zt60z_6eu4txt2deQNtB8_12DeserializerNtNtCs2oGb9mSlBjX_10serde_core2de12Deserializer15deserialize_anyNtNvXsY_NtBU_5implshNtBU_11Deserialize11deserialize16PrimitiveVisitorE0Cs1DvYjaJLFM2_7eu4data
FN:22,_RINvNtCs5WJ3N3zt60z_6eu4txt2de9from_nodeINtNtNtNtCs9V5XLWeEmQj_3std11collections4hash3map7HashMapNtNtCs2YhQnMI27q1_5alloc6string6StringNtCs1DvYjaJLFM2_7eu4data9TradegoodEECs7SMMKP1jOwW_5eu4rs
FN:22,_RINvNtCs5WJ3N3zt60z_6eu4txt2de9from_nodeNtNtCs1DvYjaJLFM2_7eu4data3map10DefaultMapECs7SMMKP1jOwW_5eu4rs
FN:49,_RINvXs2_NtCs5WJ3N3zt60z_6eu4txt2deQNtB6_12DeserializerNtNtCs2oGb9mSlBjX_10serde_core2de12Deserializer15deserialize_anyNtNvXNtNtCsbw3WoEYoaD8_10serde_json5value2deNtB1Z_5ValueNtBS_11Deserialize11deserialize12ValueVisitorECs7SMMKP1jOwW_5eu4rs
FN:49,_RINvXs2_NtCs5WJ3N3zt60z_6eu4txt2deQNtB6_12DeserializerNtNtCs2oGb9mSlBjX_10serde_core2de12Deserializer15deserialize_anyNtNvXNvCs1DvYjaJLFM2_7eu4data1__NtB1Z_9TradegoodNtBS_11Deserialize11deserialize14___FieldVisitorECs7SMMKP1jOwW_5eu4rs
FN:49,_RINvXs2_NtCs5WJ3N3zt60z_6eu4txt2deQNtB6_12DeserializerNtNtCs2oGb9mSlBjX_10serde_core2de12Deserializer15deserialize_anyNtNvXNvNtCs1DvYjaJLFM2_7eu4data3maps_1__NtB1Z_10DefaultMapNtBS_11Deserialize11deserialize14___FieldVisitorECs7SMMKP1jOwW_5eu4rs
FN:49,_RINvXs2_NtCs5WJ3N3zt60z_6eu4txt2deQNtB6_12DeserializerNtNtCs2oGb9mSlBjX_10serde_core2de12Deserializer15deserialize_anyNtNvXs14_NtBS_5implsmNtBS_11Deserialize11deserialize16PrimitiveVisitorECs7SMMKP1jOwW_5eu4rs
FN:161,_RINvXs2_NtCs5WJ3N3zt60z_6eu4txt2deQNtB6_12DeserializerNtNtCs2oGb9mSlBjX_10serde_core2de12Deserializer15deserialize_mapINtNvXs3e_NtBS_5implsINtNtNtNtCs9V5XLWeEmQj_3std11collections4hash3map7HashMappppENtBS_11Deserialize11deserialize10MapVisitorNtNtCs2YhQnMI27q1_5alloc6string6StringNtCs1DvYjaJLFM2_7eu4data9TradegoodNtNtNtB2m_4hash6random11RandomStateEECs7SMMKP1jOwW_5eu4rs
FN:161,_RINvXs2_NtCs5WJ3N3zt60z_6eu4txt2deQNtB6_12DeserializerNtNtCs2oGb9mSlBjX_10serde_core2de12Deserializer15deserialize_mapINtNvXs3e_NtBS_5implsINtNtNtNtCs9V5XLWeEmQj_3std11collections4hash3map7HashMappppENtBS_11Deserialize11deserialize10MapVisitorNtNtCs2YhQnMI27q1_5alloc6string6StringNtNtCsbw3WoEYoaD8_10serde_json5value5ValueNtNtNtB2m_4hash6random11RandomStateEECs7SMMKP1jOwW_5eu4rs
FN:161,_RINvXs2_NtCs5WJ3N3zt60z_6eu4txt2deQNtB6_12DeserializerNtNtCs2oGb9mSlBjX_10serde_core2de12Deserializer15deserialize_mapINtNvXs3e_NtBS_5implsINtNtNtNtCs9V5XLWeEmQj_3std11collections4hash3map7HashMappppENtBS_11Deserialize11deserialize10MapVisitorNtNtCs2YhQnMI27q1_5alloc6string6StringfNtNtNtB2m_4hash6random11RandomStateEECs7SMMKP1jOwW_5eu4rs
FN:161,_RINvXs2_NtCs5WJ3N3zt60z_6eu4txt2deQNtB6_12DeserializerNtNtCs2oGb9mSlBjX_10serde_core2de12Deserializer15deserialize_mapNtNvXNtNtCsbw3WoEYoaD8_10serde_json5value2deNtB1Z_5ValueNtBS_11Deserialize11deserialize12ValueVisitorECs7SMMKP1jOwW_5eu4rs
FN:161,_RINvXs2_NtCs5WJ3N3zt60z_6eu4txt2deQNtB6_12DeserializerNtNtCs2oGb9mSlBjX_10serde_core2de12Deserializer15deserialize_mapNtNvXNvCs1DvYjaJLFM2_7eu4data1__NtB1Z_9TradegoodNtBS_11Deserialize11deserialize14___FieldVisitorECs7SMMKP1jOwW_5eu4rs
FN:161,_RINvXs2_NtCs5WJ3N3zt60z_6eu4txt2deQNtB6_12DeserializerNtNtCs2oGb9mSlBjX_10serde_core2de12Deserializer15deserialize_mapNtNvXNvCs1DvYjaJLFM2_7eu4data1__NtB1Z_9TradegoodNtBS_11Deserialize11deserialize9___VisitorECs7SMMKP1jOwW_5eu4rs
FN:161,_RINvXs2_NtCs5WJ3N3zt60z_6eu4txt2deQNtB6_12DeserializerNtNtCs2oGb9mSlBjX_10serde_core2de12Deserializer15deserialize_mapNtNvXNvNtCs1DvYjaJLFM2_7eu4data3maps_1__NtB1Z_10DefaultMapNtBS_11Deserialize11deserialize14___FieldVisitorECs7SMMKP1jOwW_5eu4rs
FN:161,_RINvXs2_NtCs5WJ3N3zt60z_6eu4txt2deQNtB6_12DeserializerNtNtCs2oGb9mSlBjX_10serde_core2de12Deserializer15deserialize_mapNtNvXNvNtCs1DvYjaJLFM2_7eu4data3maps_1__NtB1Z_10DefaultMapNtBS_11Deserialize11deserialize9___VisitorECs7SMMKP1jOwW_5eu4rs
FN:161,_RINvXs2_NtCs5WJ3N3zt60z_6eu4txt2deQNtB6_12DeserializerNtNtCs2oGb9mSlBjX_10serde_core2de12Deserializer15deserialize_mapNtNvXs14_NtBS_5implsmNtBS_11Deserialize11deserialize16PrimitiveVisitorECs7SMMKP1jOwW_5eu4rs
FN:142,_RINvXs2_NtCs5WJ3N3zt60z_6eu4txt2deQNtB6_12DeserializerNtNtCs2oGb9mSlBjX_10serde_core2de12Deserializer15deserialize_seqINtNvXsh_NtBS_5implsINtNtCs2YhQnMI27q1_5alloc3vec3VecpENtBS_11Deserialize11deserialize10VecVisitorfEECs7SMMKP1jOwW_5eu4rs
FN:142,_RINvXs2_NtCs5WJ3N3zt60z_6eu4txt2deQNtB6_12DeserializerNtNtCs2oGb9mSlBjX_10serde_core2de12Deserializer15deserialize_seqINtNvXsh_NtBS_5implsINtNtCs2YhQnMI27q1_5alloc3vec3VecpENtBS_11Deserialize11deserialize10VecVisitormEECs7SMMKP1jOwW_5eu4rs
FN:142,_RINvXs2_NtCs5WJ3N3zt60z_6eu4txt2deQNtB6_12DeserializerNtNtCs2oGb9mSlBjX_10serde_core2de12Deserializer15deserialize_seqNtNvXNtNtCsbw3WoEYoaD8_10serde_json5value2deNtB1Z_5ValueNtBS_11Deserialize11deserialize12ValueVisitorECs7SMMKP1jOwW_5eu4rs
FN:142,_RINvXs2_NtCs5WJ3N3zt60z_6eu4txt2deQNtB6_12DeserializerNtNtCs2oGb9mSlBjX_10serde_core2de12Deserializer15deserialize_seqNtNvXNvCs1DvYjaJLFM2_7eu4data1__NtB1Z_9TradegoodNtBS_11Deserialize11deserialize14___FieldVisitorECs7SMMKP1jOwW_5eu4rs
FN:142,_RINvXs2_NtCs5WJ3N3zt60z_6eu4txt2deQNtB6_12DeserializerNtNtCs2oGb9mSlBjX_10serde_core2de12Deserializer15deserialize_seqNtNvXNvNtCs1DvYjaJLFM2_7eu4data3maps_1__NtB1Z_10DefaultMapNtBS_11Deserialize11deserialize14___FieldVisitorECs7SMMKP1jOwW_5eu4rs
FN:142,_RINvXs2_NtCs5WJ3N3zt60z_6eu4txt2deQNtB6_12DeserializerNtNtCs2oGb9mSlBjX_10serde_core2de12Deserializer15deserialize_seqNtNvXs14_NtBS_5implsmNtBS_11Deserialize11deserialize16PrimitiveVisitorECs7SMMKP1jOwW_5eu4rs
FN:125,_RINvXs2_NtCs5WJ3N3zt60z_6eu4txt2deQNtB6_12DeserializerNtNtCs2oGb9mSlBjX_10serde_core2de12Deserializer15deserialize_strNtNtNtCsbw3WoEYoaD8_10serde_json5value2de13KeyClassifierECs7SMMKP1jOwW_5eu4rs
FN:168,_RINvXs2_NtCs5WJ3N3zt60z_6eu4txt2deQNtB6_12DeserializerNtNtCs2oGb9mSlBjX_10serde_core2de12Deserializer18deserialize_optionINtNtBS_5impls13OptionVisitorINtNtNtNtCs9V5XLWeEmQj_3std11collections4hash3map7HashMapNtNtCs2YhQnMI27q1_5alloc6string6StringNtNtCsbw3WoEYoaD8_10serde_json5value5ValueEEECs7SMMKP1jOwW_5eu4rs
FN:168,_RINvXs2_NtCs5WJ3N3zt60z_6eu4txt2deQNtB6_12DeserializerNtNtCs2oGb9mSlBjX_10serde_core2de12Deserializer18deserialize_optionINtNtBS_5impls13OptionVisitorINtNtNtNtCs9V5XLWeEmQj_3std11collections4hash3map7HashMapNtNtCs2YhQnMI27q1_5alloc6string6StringfEEECs7SMMKP1jOwW_5eu4rs
FN:149,_RINvXs2_NtCs5WJ3N3zt60z_6eu4txt2deQNtB6_12DeserializerNtNtCs2oGb9mSlBjX_10serde_core2de12Deserializer18deserialize_structNtNvXNvCs1DvYjaJLFM2_7eu4data1__NtB22_9TradegoodNtBS_11Deserialize11deserialize9___VisitorECs7SMMKP1jOwW_5eu4rs
FN:149,_RINvXs2_NtCs5WJ3N3zt60z_6eu4txt2deQNtB6_12DeserializerNtNtCs2oGb9mSlBjX_10serde_core2de12Deserializer18deserialize_structNtNvXNvNtCs1DvYjaJLFM2_7eu4data3maps_1__NtB22_10DefaultMapNtBS_11Deserialize11deserialize9___VisitorECs7SMMKP1jOwW_5eu4rs
FN:199,_RINvXs4_NtCs5WJ3N3zt60z_6eu4txt2deNtB6_14CommaSeparatedNtNtCs2oGb9mSlBjX_10serde_core2de9SeqAccess17next_element_seedINtNtCs6joXTnudZij_4core6marker11PhantomDataNtNtCsbw3WoEYoaD8_10serde_json5value5ValueEECs7SMMKP1jOwW_5eu4rs
FN:199,_RINvXs4_NtCs5WJ3N3zt60z_6eu4txt2deNtB6_14CommaSeparatedNtNtCs2oGb9mSlBjX_10serde_core2de9SeqAccess17next_element_seedINtNtCs6joXTnudZij_4core6marker11PhantomDatafEECs7SMMKP1jOwW_5eu4rs
FN:199,_RINvXs4_NtCs5WJ3N3zt60z_6eu4txt2deNtB6_14CommaSeparatedNtNtCs2oGb9mSlBjX_10serde_core2de9SeqAccess17next_element_seedINtNtCs6joXTnudZij_4core6marker11PhantomDatamEECs7SMMKP1jOwW_5eu4rs
FN:220,_RINvXs5_NtCs5WJ3N3zt60z_6eu4txt2deNtB6_14CommaSeparatedNtNtCs2oGb9mSlBjX_10serde_core2de9MapAccess13next_key_seedINtNtCs6joXTnudZij_4core6marker11PhantomDataNtNtCs2YhQnMI27q1_5alloc6string6StringEECs7SMMKP1jOwW_5eu4rs
FN:220,_RINvXs5_NtCs5WJ3N3zt60z_6eu4txt2deNtB6_14CommaSeparatedNtNtCs2oGb9mSlBjX_10serde_core2de9MapAccess13next_key_seedINtNtCs6joXTnudZij_4core6marker11PhantomDataNtNvXNvCs1DvYjaJLFM2_7eu4data1__NtB2C_9TradegoodNtBT_11Deserialize11deserialize7___FieldEECs7SMMKP1jOwW_5eu4rs
FN:220,_RINvXs5_NtCs5WJ3N3zt60z_6eu4txt2deNtB6_14CommaSeparatedNtNtCs2oGb9mSlBjX_10serde_core2de9MapAccess13next_key_seedINtNtCs6joXTnudZij_4core6marker11PhantomDataNtNvXNvNtCs1DvYjaJLFM2_7eu4data3maps_1__NtB2C_10DefaultMapNtBT_11Deserialize11deserialize7___FieldEECs7SMMKP1jOwW_5eu4rs
FN:220,_RINvXs5_NtCs5WJ3N3zt60z_6eu4txt2deNtB6_14CommaSeparatedNtNtCs2oGb9mSlBjX_10serde_core2de9MapAccess13next_key_seedNtNtNtCsbw3WoEYoaD8_10serde_json5value2de13KeyClassifierECs7SMMKP1jOwW_5eu4rs
FN:262,_RINvXs5_NtCs5WJ3N3zt60z_6eu4txt2deNtB6_14CommaSeparatedNtNtCs2oGb9mSlBjX_10serde_core2de9MapAccess15next_value_seedINtNtCs6joXTnudZij_4core6marker11PhantomDataINtNtB1U_6option6OptionINtNtNtNtCs9V5XLWeEmQj_3std11collections4hash3map7HashMapNtNtCs2YhQnMI27q1_5alloc6string6StringNtNtCsbw3WoEYoaD8_10serde_json5value5ValueEEEECs7SMMKP1jOwW_5eu4rs
FN:262,_RINvXs5_NtCs5WJ3N3zt60z_6eu4txt2deNtB6_14CommaSeparatedNtNtCs2oGb9mSlBjX_10serde_core2de9MapAccess15next_value_seedINtNtCs6joXTnudZij_4core6marker11PhantomDataINtNtB1U_6option6OptionINtNtNtNtCs9V5XLWeEmQj_3std11collections4hash3map7HashMapNtNtCs2YhQnMI27q1_5alloc6string6StringfEEEECs7SMMKP1jOwW_5eu4rs
FN:262,_RINvXs5_NtCs5WJ3N3zt60z_6eu4txt2deNtB6_14CommaSeparatedNtNtCs2oGb9mSlBjX_10serde_core2de9MapAccess15next_value_seedINtNtCs6joXTnudZij_4core6marker11PhantomDataINtNtCs2YhQnMI27q1_5alloc3vec3VecfEEECs7SMMKP1jOwW_5eu4rs
FN:262,_RINvXs5_NtCs5WJ3N3zt60z_6eu4txt2deNtB6_14CommaSeparatedNtNtCs2oGb9mSlBjX_10serde_core2de9MapAccess15next_value_seedINtNtCs6joXTnudZij_4core6marker11PhantomDataINtNtCs2YhQnMI27q1_5alloc3vec3VecmEEECs7SMMKP1jOwW_5eu4rs
FN:262,_RINvXs5_NtCs5WJ3N3zt60z_6eu4txt2deNtB6_14CommaSeparatedNtNtCs2oGb9mSlBjX_10serde_core2de9MapAccess15next_value_seedINtNtCs6joXTnudZij_4core6marker11PhantomDataINtNtNtNtCs9V5XLWeEmQj_3std11collections4hash3map7HashMapNtNtCs2YhQnMI27q1_5alloc6string6StringfEEECs7SMMKP1jOwW_5eu4rs
FN:262,_RINvXs5_NtCs5WJ3N3zt60z_6eu4txt2deNtB6_14CommaSeparatedNtNtCs2oGb9mSlBjX_10serde_core2de9MapAccess15next_value_seedINtNtCs6joXTnudZij_4core6marker11PhantomDataNtCs1DvYjaJLFM2_7eu4data9TradegoodEECs7SMMKP1jOwW_5eu4rs
FN:262,_RINvXs5_NtCs5WJ3N3zt60z_6eu4txt2deNtB6_14CommaSeparatedNtNtCs2oGb9mSlBjX_10serde_core2de9MapAccess15next_value_seedINtNtCs6joXTnudZij_4core6marker11PhantomDataNtNtCsbw3WoEYoaD8_10serde_json5value5ValueEECs7SMMKP1jOwW_5eu4rs
FN:262,_RINvXs5_NtCs5WJ3N3zt60z_6eu4txt2deNtB6_14CommaSeparatedNtNtCs2oGb9mSlBjX_10serde_core2de9MapAccess15next_value_seedINtNtCs6joXTnudZij_4core6marker11PhantomDatafEECs7SMMKP1jOwW_5eu4rs
FN:27,_RNCINvNtCs5WJ3N3zt60z_6eu4txt2de9from_nodeINtNtNtNtCs9V5XLWeEmQj_3std11collections4hash3map7HashMapNtNtCs2YhQnMI27q1_5alloc6string6StringNtCs1DvYjaJLFM2_7eu4data9TradegoodEE0Cs7SMMKP1jOwW_5eu4rs
FN:27,_RNCINvNtCs5WJ3N3zt60z_6eu4txt2de9from_nodeNtNtCs1DvYjaJLFM2_7eu4data3map10DefaultMapE0Cs7SMMKP1jOwW_5eu4rs
FN:66,_RNCINvXs2_NtCs5WJ3N3zt60z_6eu4txt2deQNtB8_12DeserializerNtNtCs2oGb9mSlBjX_10serde_core2de12Deserializer15deserialize_anyNtNvXNtNtCsbw3WoEYoaD8_10serde_json5value2deNtB21_5ValueNtBU_11Deserialize11deserialize12ValueVisitorE0Cs7SMMKP1jOwW_5eu4rs
FN:66,_RNCINvXs2_NtCs5WJ3N3zt60z_6eu4txt2deQNtB8_12DeserializerNtNtCs2oGb9mSlBjX_10serde_core2de12Deserializer15deserialize_anyNtNvXNvCs1DvYjaJLFM2_7eu4data1__NtB21_9TradegoodNtBU_11Deserialize11deserialize14___FieldVisitorE0Cs7SMMKP1jOwW_5eu4rs
FN:66,_RNCINvXs2_NtCs5WJ3N3zt60z_6eu4txt2deQNtB8_12DeserializerNtNtCs2oGb9mSlBjX_10serde_core2de12Deserializer15deserialize_anyNtNvXNvNtCs1DvYjaJLFM2_7eu4data3maps_1__NtB21_10DefaultMapNtBU_11Deserialize11deserialize14___FieldVisitorE0Cs7SMMKP1jOwW_5eu4rs
FN:66,_RNCINvXs2_NtCs5WJ3N3zt60z_6eu4txt2deQNtB8_12DeserializerNtNtCs2oGb9mSlBjX_10serde_core2de12Deserializer15deserialize_anyNtNvXs14_NtBU_5implsmNtBU_11Deserialize11deserialize16PrimitiveVisitorE0Cs7SMMKP1jOwW_5eu4rs
FN:22,_RINvNtCsioskNl2EwFx_6eu4txt2de9from_nodepEB4_
FN:41,_RINvXs1_NtCsioskNl2EwFx_6eu4txt2deNtB6_5ErrorNtNtCs2oGb9mSlBjX_10serde_core2de5Error6custompEB8_
FN:49,_RINvXs2_NtCsioskNl2EwFx_6eu4txt2deQNtB6_12DeserializerNtNtCs2oGb9mSlBjX_10serde_core2de12Deserializer15deserialize_anypEB8_
FN:114,_RINvXs2_NtCsioskNl2EwFx_6eu4txt2deQNtB6_12DeserializerNtNtCs2oGb9mSlBjX_10serde_core2de12Deserializer15deserialize_f32pEB8_
FN:105,_RINvXs2_NtCsioskNl2EwFx_6eu4txt2deQNtB6_12DeserializerNtNtCs2oGb9mSlBjX_10serde_core2de12Deserializer15deserialize_i32pEB8_
FN:161,_RINvXs2_NtCsioskNl2EwFx_6eu4txt2deQNtB6_12DeserializerNtNtCs2oGb9mSlBjX_10serde_core2de12Deserializer15deserialize_mappEB8_
FN:142,_RINvXs2_NtCsioskNl2EwFx_6eu4txt2deQNtB6_12DeserializerNtNtCs2oGb9mSlBjX_10serde_core2de12Deserializer15deserialize_seqpEB8_
FN:125,_RINvXs2_NtCsioskNl2EwFx_6eu4txt2deQNtB6_12DeserializerNtNtCs2oGb9mSlBjX_10serde_core2de12Deserializer15deserialize_strpEB8_
FN:87,_RINvXs2_NtCsioskNl2EwFx_6eu4txt2deQNtB6_12DeserializerNtNtCs2oGb9mSlBjX_10serde_core2de12Deserializer16deserialize_boolpEB8_
FN:168,_RINvXs2_NtCsioskNl2EwFx_6eu4txt2deQNtB6_12DeserializerNtNtCs2oGb9mSlBjX_10serde_core2de12Deserializer18deserialize_optionpEB8_
FN:135,_RINvXs2_NtCsioskNl2EwFx_6eu4txt2deQNtB6_12DeserializerNtNtCs2oGb9mSlBjX_10serde_core2de12Deserializer18deserialize_stringpEB8_
FN:149,_RINvXs2_NtCsioskNl2EwFx_6eu4txt2deQNtB6_12DeserializerNtNtCs2oGb9mSlBjX_10serde_core2de12Deserializer18deserialize_structpEB8_
FN:199,_RINvXs4_NtCsioskNl2EwFx_6eu4txt2deNtB6_14CommaSeparatedNtNtCs2oGb9mSlBjX_10serde_core2de9SeqAccess17next_element_seedpEB8_
FN:220,_RINvXs5_NtCsioskNl2EwFx_6eu4txt2deNtB6_14CommaSeparatedNtNtCs2oGb9mSlBjX_10serde_core2de9MapAccess13next_key_seedpEB8_
FN:262,_RINvXs5_NtCsioskNl2EwFx_6eu4txt2deNtB6_14CommaSeparatedNtNtCs2oGb9mSlBjX_10serde_core2de9MapAccess15next_value_seedpEB8_
FN:27,_RNCINvNtCsioskNl2EwFx_6eu4txt2de9from_nodepE0B6_
FN:66,_RNCINvXs2_NtCsioskNl2EwFx_6eu4txt2deQNtB8_12DeserializerNtNtCs2oGb9mSlBjX_10serde_core2de12Deserializer15deserialize_anypE0Ba_
FN:14,_RNvMNtCsioskNl2EwFx_6eu4txt2deNtB2_12Deserializer9from_node
FN:191,_RNvMs3_NtCsioskNl2EwFx_6eu4txt2deNtB5_14CommaSeparated3new
FN:35,_RNvXs_NtCsioskNl2EwFx_6eu4txt2deNtB4_5ErrorNtNtCs6joXTnudZij_4core3fmt7Display3fmt
FNDA:1,_RINvNtCs5WJ3N3zt60z_6eu4txt2de9from_nodeNtCsaHGe17Pe3JB_8de_tests6NestedEBE_
FNDA:1,_RINvNtCs5WJ3N3zt60z_6eu4txt2de9from_nodeNtCsaHGe17Pe3JB_8de_tests6SimpleEBE_
FNDA:1,_RINvNtCs5WJ3N3zt60z_6eu4txt2de9from_nodeNtCsaHGe17Pe3JB_8de_tests8BoolTestEBE_
FNDA:1,_RINvNtCs5WJ3N3zt60z_6eu4txt2de9from_nodeNtCsaHGe17Pe3JB_8de_tests8ListTestEBE_
FNDA:0,_RINvXs1_NtCs5WJ3N3zt60z_6eu4txt2deNtB6_5ErrorNtNtCs2oGb9mSlBjX_10serde_core2de5Error6customNtNtCs6joXTnudZij_4core3fmt9ArgumentsECsaHGe17Pe3JB_8de_tests
FNDA:0,_RINvXs2_NtCs5WJ3N3zt60z_6eu4txt2deQNtB6_12DeserializerNtNtCs2oGb9mSlBjX_10serde_core2de12Deserializer15deserialize_anyNtNtBS_11ignored_any10IgnoredAnyECsaHGe17Pe3JB_8de_tests
FNDA:4,_RINvXs2_NtCs5WJ3N3zt60z_6eu4txt2deQNtB6_12DeserializerNtNtCs2oGb9mSlBjX_10serde_core2de12Deserializer15deserialize_anyNtNvXNvCsaHGe17Pe3JB_8de_tests1__NtB1Z_6SimpleNtBS_11Deserialize11deserialize14___FieldVisitorEB1Z_
FNDA:2,_RINvXs2_NtCs5WJ3N3zt60z_6eu4txt2deQNtB6_12DeserializerNtNtCs2oGb9mSlBjX_10serde_core2de12Deserializer15deserialize_anyNtNvXNvCsaHGe17Pe3JB_8de_testss0_1__NtB1Z_8ListTestNtBS_11Deserialize11deserialize14___FieldVisitorEB1Z_
FNDA:1,_RINvXs2_NtCs5WJ3N3zt60z_6eu4txt2deQNtB6_12DeserializerNtNtCs2oGb9mSlBjX_10serde_core2de12Deserializer15deserialize_anyNtNvXNvCsaHGe17Pe3JB_8de_testss1_1__NtB1Z_6NestedNtBS_11Deserialize11deserialize14___FieldVisitorEB1Z_
FNDA:2,_RINvXs2_NtCs5WJ3N3zt60z_6eu4txt2deQNtB6_12DeserializerNtNtCs2oGb9mSlBjX_10serde_core2de12Deserializer15deserialize_anyNtNvXNvCsaHGe17Pe3JB_8de_testss_1__NtB1Z_8BoolTestNtBS_11Deserialize11deserialize14___FieldVisitorEB1Z_
FNDA:5,_RINvXs2_NtCs5WJ3N3zt60z_6eu4txt2deQNtB6_12DeserializerNtNtCs2oGb9mSlBjX_10serde_core2de12Deserializer15deserialize_i32NtNvXsP_NtBS_5implslNtBS_11Deserialize11deserialize16PrimitiveVisitorECsaHGe17Pe3JB_8de_tests
FNDA:0,_RINvXs2_NtCs5WJ3N3zt60z_6eu4txt2deQNtB6_12DeserializerNtNtCs2oGb9mSlBjX_10serde_core2de12Deserializer15deserialize_mapNtNtBS_11ignored_any10IgnoredAnyECsaHGe17Pe3JB_8de_tests
FNDA:0,_RINvXs2_NtCs5WJ3N3zt60z_6eu4txt2deQNtB6_12DeserializerNtNtCs2oGb9mSlBjX_10serde_core2de12Deserializer15deserialize_mapNtNvXNvCsaHGe17Pe3JB_8de_tests1__NtB1Z_6SimpleNtBS_11Deserialize11deserialize14___FieldVisitorEB1Z_
FNDA:2,_RINvXs2_NtCs5WJ3N3zt60z_6eu4txt2deQNtB6_12DeserializerNtNtCs2oGb9mSlBjX_10serde_core2de12Deserializer15deserialize_mapNtNvXNvCsaHGe17Pe3JB_8de_tests1__NtB1Z_6SimpleNtBS_11Deserialize11deserialize9___VisitorEB1Z_
FNDA:0,_RINvXs2_NtCs5WJ3N3zt60z_6eu4txt2deQNtB6_12DeserializerNtNtCs2oGb9mSlBjX_10serde_core2de12Deserializer15deserialize_mapNtNvXNvCsaHGe17Pe3JB_8de_testss0_1__NtB1Z_8ListTestNtBS_11Deserialize11deserialize14___FieldVisitorEB1Z_
FNDA:1,_RINvXs2_NtCs5WJ3N3zt60z_6eu4txt2deQNtB6_12DeserializerNtNtCs2oGb9mSlBjX_10serde_core2de12Deserializer15deserialize_mapNtNvXNvCsaHGe17Pe3JB_8de_testss0_1__NtB1Z_8ListTestNtBS_11Deserialize11deserialize9___VisitorEB1Z_
FNDA:0,_RINvXs2_NtCs5WJ3N3zt60z_6eu4txt2deQNtB6_12DeserializerNtNtCs2oGb9mSlBjX_10serde_core2de12Deserializer15deserialize_mapNtNvXNvCsaHGe17Pe3JB_8de_testss1_1__NtB1Z_6NestedNtBS_11Deserialize11deserialize14___FieldVisitorEB1Z_
FNDA:1,_RINvXs2_NtCs5WJ3N3zt60z_6eu4txt2deQNtB6_12DeserializerNtNtCs2oGb9mSlBjX_10serde_core2de12Deserializer15deserialize_mapNtNvXNvCsaHGe17Pe3JB_8de_testss1_1__NtB1Z_6NestedNtBS_11Deserialize11deserialize9___VisitorEB1Z_
FNDA:0,_RINvXs2_NtCs5WJ3N3zt60z_6eu4txt2deQNtB6_12DeserializerNtNtCs2oGb9mSlBjX_10serde_core2de12Deserializer15deserialize_mapNtNvXNvCsaHGe17Pe3JB_8de_testss_1__NtB1Z_8BoolTestNtBS_11Deserialize11deserialize14___FieldVisitorEB1Z_
FNDA:1,_RINvXs2_NtCs5WJ3N3zt60z_6eu4txt2deQNtB6_12DeserializerNtNtCs2oGb9mSlBjX_10serde_core2de12Deserializer15deserialize_mapNtNvXNvCsaHGe17Pe3JB_8de_testss_1__NtB1Z_8BoolTestNtBS_11Deserialize11deserialize9___VisitorEB1Z_
FNDA:1,_RINvXs2_NtCs5WJ3N3zt60z_6eu4txt2deQNtB6_12DeserializerNtNtCs2oGb9mSlBjX_10serde_core2de12Deserializer15deserialize_seqINtNvXsh_NtBS_5implsINtNtCs2YhQnMI27q1_5alloc3vec3VecpENtBS_11Deserialize11deserialize10VecVisitorNtNtB2h_6string6StringEECsaHGe17Pe3JB_8de_tests
FNDA:1,_RINvXs2_NtCs5WJ3N3zt60z_6eu4txt2deQNtB6_12DeserializerNtNtCs2oGb9mSlBjX_10serde_core2de12Deserializer15deserialize_seqINtNvXsh_NtBS_5implsINtNtCs2YhQnMI27q1_5alloc3vec3VecpENtBS_11Deserialize11deserialize10VecVisitorlEECsaHGe17Pe3JB_8de_tests
FNDA:0,_RINvXs2_NtCs5WJ3N3zt60z_6eu4txt2deQNtB6_12DeserializerNtNtCs2oGb9mSlBjX_10serde_core2de12Deserializer15deserialize_seqNtNtBS_11ignored_any10IgnoredAnyECsaHGe17Pe3JB_8de_tests
FNDA:0,_RINvXs2_NtCs5WJ3N3zt60z_6eu4txt2deQNtB6_12DeserializerNtNtCs2oGb9mSlBjX_10serde_core2de12Deserializer15deserialize_seqNtNvXNvCsaHGe17Pe3JB_8de_tests1__NtB1Z_6SimpleNtBS_11Deserialize11deserialize14___FieldVisitorEB1Z_
FNDA:0,_RINvXs2_NtCs5WJ3N3zt60z_6eu4txt2deQNtB6_12DeserializerNtNtCs2oGb9mSlBjX_10serde_core2de12Deserializer15deserialize_seqNtNvXNvCsaHGe17Pe3JB_8de_testss0_1__NtB1Z_8ListTestNtBS_11Deserialize11deserialize14___FieldVisitorEB1Z_
FNDA:0,_RINvXs2_NtCs5WJ3N3zt60z_6eu4txt2deQNtB6_12DeserializerNtNtCs2oGb9mSlBjX_10serde_core2de12Deserializer15deserialize_seqNtNvXNvCsaHGe17Pe3JB_8de_testss1_1__NtB1Z_6NestedNtBS_11Deserialize11deserialize14___FieldVisitorEB1Z_
FNDA:0,_RINvXs2_NtCs5WJ3N3zt60z_6eu4txt2deQNtB6_12DeserializerNtNtCs2oGb9mSlBjX_10serde_core2de12Deserializer15deserialize_seqNtNvXNvCsaHGe17Pe3JB_8de_testss_1__NtB1Z_8BoolTestNtBS_11Deserialize11deserialize14___FieldVisitorEB1Z_
FNDA:5,_RINvXs2_NtCs5WJ3N3zt60z_6eu4txt2deQNtB6_12DeserializerNtNtCs2oGb9mSlBjX_10serde_core2de12Deserializer15deserialize_strNtNtBS_5impls13StringVisitorECsaHGe17Pe3JB_8de_tests
FNDA:2,_RINvXs2_NtCs5WJ3N3zt60z_6eu4txt2deQNtB6_12DeserializerNtNtCs2oGb9mSlBjX_10serde_core2de12Deserializer16deserialize_boolNtNtBS_5impls11BoolVisitorECsaHGe17Pe3JB_8de_tests
FNDA:5,_RINvXs2_NtCs5WJ3N3zt60z_6eu4txt2deQNtB6_12DeserializerNtNtCs2oGb9mSlBjX_10serde_core2de12Deserializer18deserialize_stringNtNtBS_5impls13StringVisitorECsaHGe17Pe3JB_8de_tests
FNDA:2,_RINvXs2_NtCs5WJ3N3zt60z_6eu4txt2deQNtB6_12DeserializerNtNtCs2oGb9mSlBjX_10serde_core2de12Deserializer18deserialize_structNtNvXNvCsaHGe17Pe3JB_8de_tests1__NtB22_6SimpleNtBS_11Deserialize11deserialize9___VisitorEB22_
FNDA:1,_RINvXs2_NtCs5WJ3N3zt60z_6eu4txt2deQNtB6_12DeserializerNtNtCs2oGb9mSlBjX_10serde_core2de12Deserializer18deserialize_structNtNvXNvCsaHGe17Pe3JB_8de_testss0_1__NtB22_8ListTestNtBS_11Deserialize11deserialize9___VisitorEB22_
FNDA:1,_RINvXs2_NtCs5WJ3N3zt60z_6eu4txt2deQNtB6_12DeserializerNtNtCs2oGb9mSlBjX_10serde_core2de12Deserializer18deserialize_structNtNvXNvCsaHGe17Pe3JB_8de_testss1_1__NtB22_6NestedNtBS_11Deserialize11deserialize9___VisitorEB22_
FNDA:1,_RINvXs2_NtCs5WJ3N3zt60z_6eu4txt2deQNtB6_12DeserializerNtNtCs2oGb9mSlBjX_10serde_core2de12Deserializer18deserialize_structNtNvXNvCsaHGe17Pe3JB_8de_testss_1__NtB22_8BoolTestNtBS_11Deserialize11deserialize9___VisitorEB22_
FNDA:0,_RINvXs4_NtCs5WJ3N3zt60z_6eu4txt2deNtB6_14CommaSeparatedNtNtCs2oGb9mSlBjX_10serde_core2de9SeqAccess17next_element_seedINtNtCs6joXTnudZij_4core6marker11PhantomDataNtNtBT_11ignored_any10IgnoredAnyEECsaHGe17Pe3JB_8de_tests
FNDA:4,_RINvXs4_NtCs5WJ3N3zt60z_6eu4txt2deNtB6_14CommaSeparatedNtNtCs2oGb9mSlBjX_10serde_core2de9SeqAccess17next_element_seedINtNtCs6joXTnudZij_4core6marker11PhantomDataNtNtCs2YhQnMI27q1_5alloc6string6StringEECsaHGe17Pe3JB_8de_tests
FNDA:4,_RINvXs4_NtCs5WJ3N3zt60z_6eu4txt2deNtB6_14CommaSeparatedNtNtCs2oGb9mSlBjX_10serde_core2de9SeqAccess17next_element_seedINtNtCs6joXTnudZij_4core6marker11PhantomDatalEECsaHGe17Pe3JB_8de_tests
FNDA:0,_RINvXs5_NtCs5WJ3N3zt60z_6eu4txt2deNtB6_14CommaSeparatedNtNtCs2oGb9mSlBjX_10serde_core2de9MapAccess13next_key_seedINtNtCs6joXTnudZij_4core6marker11PhantomDataNtNtBT_11ignored_any10IgnoredAnyEECsaHGe17Pe3JB_8de_tests
FNDA:6,_RINvXs5_NtCs5WJ3N3zt60z_6eu4txt2deNtB6_14CommaSeparatedNtNtCs2oGb9mSlBjX_10serde_core2de9MapAccess13next_key_seedINtNtCs6joXTnudZij_4core6marker11PhantomDataNtNvXNvCsaHGe17Pe3JB_8de_tests1__NtB2C_6SimpleNtBT_11Deserialize11deserialize7___FieldEEB2C_
FNDA:3,_RINvXs5_NtCs5WJ3N3zt60z_6eu4txt2deNtB6_14CommaSeparatedNtNtCs2oGb9mSlBjX_10serde_core2de9MapAccess13next_key_seedINtNtCs6joXTnudZij_4core6marker11PhantomDataNtNvXNvCsaHGe17Pe3JB_8de_testss0_1__NtB2C_8ListTestNtBT_11Deserialize11deserialize7___FieldEEB2C_
FNDA:2,_RINvXs5_NtCs5WJ3N3zt60z_6eu4txt2deNtB6_14CommaSeparatedNtNtCs2oGb9mSlBjX_10serde_core2de9MapAccess13next_key_seedINtNtCs6joXTnudZij_4core6marker11PhantomDataNtNvXNvCsaHGe17Pe3JB_8de_testss1_1__NtB2C_6NestedNtBT_11Deserialize11deserialize7___FieldEEB2C_
FNDA:3,_RINvXs5_NtCs5WJ3N3zt60z_6eu4txt2deNtB6_14CommaSeparatedNtNtCs2oGb9mSlBjX_10serde_core2de9MapAccess13next_key_seedINtNtCs6joXTnudZij_4core6marker11PhantomDataNtNvXNvCsaHGe17Pe3JB_8de_testss_1__NtB2C_8BoolTestNtBT_11Deserialize11deserialize7___FieldEEB2C_
FNDA:1,_RINvXs5_NtCs5WJ3N3zt60z_6eu4txt2deNtB6_14CommaSeparatedNtNtCs2oGb9mSlBjX_10serde_core2de9MapAccess15next_value_seedINtNtCs6joXTnudZij_4core6marker11PhantomDataINtNtCs2YhQnMI27q1_5alloc3vec3VecNtNtB2C_6string6StringEEECsaHGe17Pe3JB_8de_tests
FNDA:1,_RINvXs5_NtCs5WJ3N3zt60z_6eu4txt2deNtB6_14CommaSeparatedNtNtCs2oGb9mSlBjX_10serde_core2de9MapAccess15next_value_seedINtNtCs6joXTnudZij_4core6marker11PhantomDataINtNtCs2YhQnMI27q1_5alloc3vec3VeclEEECsaHGe17Pe3JB_8de_tests
FNDA:1,_RINvXs5_NtCs5WJ3N3zt60z_6eu4txt2deNtB6_14CommaSeparatedNtNtCs2oGb9mSlBjX_10serde_core2de9MapAccess15next_value_seedINtNtCs6joXTnudZij_4core6marker11PhantomDataNtCsaHGe17Pe3JB_8de_tests6SimpleEEB2z_
FNDA:0,_RINvXs5_NtCs5WJ3N3zt60z_6eu4txt2deNtB6_14CommaSeparatedNtNtCs2oGb9mSlBjX_10serde_core2de9MapAccess15next_value_seedINtNtCs6joXTnudZij_4core6marker11PhantomDataNtNtBT_11ignored_any10IgnoredAnyEECsaHGe17Pe3JB_8de_tests
FNDA:2,_RINvXs5_NtCs5WJ3N3zt60z_6eu4txt2deNtB6_14CommaSeparatedNtNtCs2oGb9mSlBjX_10serde_core2de9MapAccess15next_value_seedINtNtCs6joXTnudZij_4core6marker11PhantomDataNtNtCs2YhQnMI27q1_5alloc6string6StringEECsaHGe17Pe3JB_8de_tests
FNDA:2,_RINvXs5_NtCs5WJ3N3zt60z_6eu4txt2deNtB6_14CommaSeparatedNtNtCs2oGb9mSlBjX_10serde_core2de9MapAccess15next_value_seedINtNtCs6joXTnudZij_4core6marker11PhantomDatabEECsaHGe17Pe3JB_8de_tests
FNDA:2,_RINvXs5_NtCs5WJ3N3zt60z_6eu4txt2deNtB6_14CommaSeparatedNtNtCs2oGb9mSlBjX_10serde_core2de9MapAccess15next_value_seedINtNtCs6joXTnudZij_4core6marker11PhantomDatalEECsaHGe17Pe3JB_8de_tests
FNDA:0,_RNCINvNtCs5WJ3N3zt60z_6eu4txt2de9from_nodeNtCsaHGe17Pe3JB_8de_tests6NestedE0BG_
FNDA:0,_RNCINvNtCs5WJ3N3zt60z_6eu4txt2de9from_nodeNtCsaHGe17Pe3JB_8de_tests6SimpleE0BG_
FNDA:0,_RNCINvNtCs5WJ3N3zt60z_6eu4txt2de9from_nodeNtCsaHGe17Pe3JB_8de_tests8BoolTestE0BG_
FNDA:0,_RNCINvNtCs5WJ3N3zt60z_6eu4txt2de9from_nodeNtCsaHGe17Pe3JB_8de_tests8ListTestE0BG_
FNDA:0,_RNCINvXs2_NtCs5WJ3N3zt60z_6eu4txt2deQNtB8_12DeserializerNtNtCs2oGb9mSlBjX_10serde_core2de12Deserializer15deserialize_anyNtNtBU_11ignored_any10IgnoredAnyE0CsaHGe17Pe3JB_8de_tests
FNDA:0,_RNCINvXs2_NtCs5WJ3N3zt60z_6eu4txt2deQNtB8_12DeserializerNtNtCs2oGb9mSlBjX_10serde_core2de12Deserializer15deserialize_anyNtNvXNvCsaHGe17Pe3JB_8de_tests1__NtB21_6SimpleNtBU_11Deserialize11deserialize14___FieldVisitorE0B21_
FNDA:0,_RNCINvXs2_NtCs5WJ3N3zt60z_6eu4txt2deQNtB8_12DeserializerNtNtCs2oGb9mSlBjX_10serde_core2de12Deserializer15deserialize_anyNtNvXNvCsaHGe17Pe3JB_8de_testss0_1__NtB21_8ListTestNtBU_11Deserialize11deserialize14___FieldVisitorE0B21_
FNDA:0,_RNCINvXs2_NtCs5WJ3N3zt60z_6eu4txt2deQNtB8_12DeserializerNtNtCs2oGb9mSlBjX_10serde_core2de12Deserializer15deserialize_anyNtNvXNvCsaHGe17Pe3JB_8de_testss1_1__NtB21_6NestedNtBU_11Deserialize11deserialize14___FieldVisitorE0B21_
FNDA:0,_RNCINvXs2_NtCs5WJ3N3zt60z_6eu4txt2deQNtB8_12DeserializerNtNtCs2oGb9mSlBjX_10serde_core2de12Deserializer15deserialize_anyNtNvXNvCsaHGe17Pe3JB_8de_testss_1__NtB21_8BoolTestNtBU_11Deserialize11deserialize14___FieldVisitorE0B21_
FNDA:147,_RNvMNtCs5WJ3N3zt60z_6eu4txt2deNtB2_12Deserializer9from_node
FNDA:44,_RNvMs3_NtCs5WJ3N3zt60z_6eu4txt2deNtB5_14CommaSeparated3new
FNDA:1,_RNvXs_NtCs5WJ3N3zt60z_6eu4txt2deNtB4_5ErrorNtNtCs6joXTnudZij_4core3fmt7Display3fmt
FNDA:0,_RINvNtCs5WJ3N3zt60z_6eu4txt2de9from_nodepEB4_
FNDA:0,_RINvXs1_NtCs5WJ3N3zt60z_6eu4txt2deNtB6_5ErrorNtNtCs2oGb9mSlBjX_10serde_core2de5Error6custompEB8_
FNDA:0,_RINvXs2_NtCs5WJ3N3zt60z_6eu4txt2deQNtB6_12DeserializerNtNtCs2oGb9mSlBjX_10serde_core2de12Deserializer15deserialize_anypEB8_
FNDA:0,_RINvXs2_NtCs5WJ3N3zt60z_6eu4txt2deQNtB6_12DeserializerNtNtCs2oGb9mSlBjX_10serde_core2de12Deserializer15deserialize_f32pEB8_
FNDA:0,_RINvXs2_NtCs5WJ3N3zt60z_6eu4txt2deQNtB6_12DeserializerNtNtCs2oGb9mSlBjX_10serde_core2de12Deserializer15deserialize_i32pEB8_
FNDA:0,_RINvXs2_NtCs5WJ3N3zt60z_6eu4txt2deQNtB6_12DeserializerNtNtCs2oGb9mSlBjX_10serde_core2de12Deserializer15deserialize_mappEB8_
FNDA:0,_RINvXs2_NtCs5WJ3N3zt60z_6eu4txt2deQNtB6_12DeserializerNtNtCs2oGb9mSlBjX_10serde_core2de12Deserializer15deserialize_seqpEB8_
FNDA:0,_RINvXs2_NtCs5WJ3N3zt60z_6eu4txt2deQNtB6_12DeserializerNtNtCs2oGb9mSlBjX_10serde_core2de12Deserializer15deserialize_strpEB8_
FNDA:0,_RINvXs2_NtCs5WJ3N3zt60z_6eu4txt2deQNtB6_12DeserializerNtNtCs2oGb9mSlBjX_10serde_core2de12Deserializer16deserialize_boolpEB8_
FNDA:0,_RINvXs2_NtCs5WJ3N3zt60z_6eu4txt2deQNtB6_12DeserializerNtNtCs2oGb9mSlBjX_10serde_core2de12Deserializer18deserialize_optionpEB8_
FNDA:0,_RINvXs2_NtCs5WJ3N3zt60z_6eu4txt2deQNtB6_12DeserializerNtNtCs2oGb9mSlBjX_10serde_core2de12Deserializer18deserialize_stringpEB8_
FNDA:0,_RINvXs2_NtCs5WJ3N3zt60z_6eu4txt2deQNtB6_12DeserializerNtNtCs2oGb9mSlBjX_10serde_core2de12Deserializer18deserialize_structpEB8_
FNDA:0,_RINvXs4_NtCs5WJ3N3zt60z_6eu4txt2deNtB6_14CommaSeparatedNtNtCs2oGb9mSlBjX_10serde_core2de9SeqAccess17next_element_seedpEB8_
FNDA:0,_RINvXs5_NtCs5WJ3N3zt60z_6eu4txt2deNtB6_14CommaSeparatedNtNtCs2oGb9mSlBjX_10serde_core2de9MapAccess13next_key_seedpEB8_
FNDA:0,_RINvXs5_NtCs5WJ3N3zt60z_6eu4txt2deNtB6_14CommaSeparatedNtNtCs2oGb9mSlBjX_10serde_core2de9MapAccess15next_value_seedpEB8_
FNDA:0,_RNCINvNtCs5WJ3N3zt60z_6eu4txt2de9from_nodepE0B6_
FNDA:0,_RNCINvXs2_NtCs5WJ3N3zt60z_6eu4txt2deQNtB8_12DeserializerNtNtCs2oGb9mSlBjX_10serde_core2de12Deserializer15deserialize_anypE0Ba_
FNDA:1,_RINvNtCs5WJ3N3zt60z_6eu4txt2de9from_nodeNtCs3CepgdPYNPZ_7eu4data9TradegoodEBE_
FNDA:3,_RINvNtCs5WJ3N3zt60z_6eu4txt2de9from_nodeNtNtCs3CepgdPYNPZ_7eu4data7history15ProvinceHistoryEBG_
FNDA:2,_RINvNtCs5WJ3N3zt60z_6eu4txt2de9from_nodeNtNtCs3CepgdPYNPZ_7eu4data9countries7CountryEBG_
FNDA:0,_RINvXs1_NtCs5WJ3N3zt60z_6eu4txt2deNtB6_5ErrorNtNtCs2oGb9mSlBjX_10serde_core2de5Error6customNtNtCs6joXTnudZij_4core3fmt9ArgumentsECs3CepgdPYNPZ_7eu4data
FNDA:0,_RINvXs2_NtCs5WJ3N3zt60z_6eu4txt2deQNtB6_12DeserializerNtNtCs2oGb9mSlBjX_10serde_core2de12Deserializer15deserialize_anyNtNtBS_11ignored_any10IgnoredAnyECs3CepgdPYNPZ_7eu4data
FNDA:1,_RINvXs2_NtCs5WJ3N3zt60z_6eu4txt2deQNtB6_12DeserializerNtNtCs2oGb9mSlBjX_10serde_core2de12Deserializer15deserialize_anyNtNvXNtNtCsbw3WoEYoaD8_10serde_json5value2deNtB1Z_5ValueNtBS_11Deserialize11deserialize12ValueVisitorECs3CepgdPYNPZ_7eu4data
FNDA:3,_RINvXs2_NtCs5WJ3N3zt60z_6eu4txt2deQNtB6_12DeserializerNtNtCs2oGb9mSlBjX_10serde_core2de12Deserializer15deserialize_anyNtNvXNvCs3CepgdPYNPZ_7eu4data1__NtB1Z_9TradegoodNtBS_11Deserialize11deserialize14___FieldVisitorEB1Z_
FNDA:5,_RINvXs2_NtCs5WJ3N3zt60z_6eu4txt2deQNtB6_12DeserializerNtNtCs2oGb9mSlBjX_10serde_core2de12Deserializer15deserialize_anyNtNvXNvNtCs3CepgdPYNPZ_7eu4data7history1__NtB1Z_15ProvinceHistoryNtBS_11Deserialize11deserialize14___FieldVisitorEB21_
FNDA:2,_RINvXs2_NtCs5WJ3N3zt60z_6eu4txt2deQNtB6_12DeserializerNtNtCs2oGb9mSlBjX_10serde_core2de12Deserializer15deserialize_anyNtNvXNvNtCs3CepgdPYNPZ_7eu4data9countries1__NtB1Z_7CountryNtBS_11Deserialize11deserialize14___FieldVisitorEB21_
FNDA:6,_RINvXs2_NtCs5WJ3N3zt60z_6eu4txt2deQNtB6_12DeserializerNtNtCs2oGb9mSlBjX_10serde_core2de12Deserializer15deserialize_anyNtNvXsY_NtBS_5implshNtBS_11Deserialize11deserialize16PrimitiveVisitorECs3CepgdPYNPZ_7eu4data
FNDA:6,_RINvXs2_NtCs5WJ3N3zt60z_6eu4txt2deQNtB6_12DeserializerNtNtCs2oGb9mSlBjX_10serde_core2de12Deserializer15deserialize_f32NtNvXs1b_NtBS_5implsfNtBS_11Deserialize11deserialize16PrimitiveVisitorECs3CepgdPYNPZ_7eu4data
FNDA:1,_RINvXs2_NtCs5WJ3N3zt60z_6eu4txt2deQNtB6_12DeserializerNtNtCs2oGb9mSlBjX_10serde_core2de12Deserializer15deserialize_mapINtNvXs3e_NtBS_5implsINtNtNtNtCs9V5XLWeEmQj_3std11collections4hash3map7HashMappppENtBS_11Deserialize11deserialize10MapVisitorNtNtCs2YhQnMI27q1_5alloc6string6StringNtNtCsbw3WoEYoaD8_10serde_json5value5ValueNtNtNtB2m_4hash6random11RandomStateEECs3CepgdPYNPZ_7eu4data
FNDA:1,_RINvXs2_NtCs5WJ3N3zt60z_6eu4txt2deQNtB6_12DeserializerNtNtCs2oGb9mSlBjX_10serde_core2de12Deserializer15deserialize_mapINtNvXs3e_NtBS_5implsINtNtNtNtCs9V5XLWeEmQj_3std11collections4hash3map7HashMappppENtBS_11Deserialize11deserialize10MapVisitorNtNtCs2YhQnMI27q1_5alloc6string6StringfNtNtNtB2m_4hash6random11RandomStateEECs3CepgdPYNPZ_7eu4data
FNDA:0,_RINvXs2_NtCs5WJ3N3zt60z_6eu4txt2deQNtB6_12DeserializerNtNtCs2oGb9mSlBjX_10serde_core2de12Deserializer15deserialize_mapNtNtBS_11ignored_any10IgnoredAnyECs3CepgdPYNPZ_7eu4data
FNDA:0,_RINvXs2_NtCs5WJ3N3zt60z_6eu4txt2deQNtB6_12DeserializerNtNtCs2oGb9mSlBjX_10serde_core2de12Deserializer15deserialize_mapNtNvXNtNtCsbw3WoEYoaD8_10serde_json5value2deNtB1Z_5ValueNtBS_11Deserialize11deserialize12ValueVisitorECs3CepgdPYNPZ_7eu4data
FNDA:0,_RINvXs2_NtCs5WJ3N3zt60z_6eu4txt2deQNtB6_12DeserializerNtNtCs2oGb9mSlBjX_10serde_core2de12Deserializer15deserialize_mapNtNvXNvCs3CepgdPYNPZ_7eu4data1__NtB1Z_9TradegoodNtBS_11Deserialize11deserialize14___FieldVisitorEB1Z_
FNDA:1,_RINvXs2_NtCs5WJ3N3zt60z_6eu4txt2deQNtB6_12DeserializerNtNtCs2oGb9mSlBjX_10serde_core2de12Deserializer15deserialize_mapNtNvXNvCs3CepgdPYNPZ_7eu4data1__NtB1Z_9TradegoodNtBS_11Deserialize11deserialize9___VisitorEB1Z_
FNDA:0,_RINvXs2_NtCs5WJ3N3zt60z_6eu4txt2deQNtB6_12DeserializerNtNtCs2oGb9mSlBjX_10serde_core2de12Deserializer15deserialize_mapNtNvXNvNtCs3CepgdPYNPZ_7eu4data7history1__NtB1Z_15ProvinceHistoryNtBS_11Deserialize11deserialize14___FieldVisitorEB21_
FNDA:3,_RINvXs2_NtCs5WJ3N3zt60z_6eu4txt2deQNtB6_12DeserializerNtNtCs2oGb9mSlBjX_10serde_core2de12Deserializer15deserialize_mapNtNvXNvNtCs3CepgdPYNPZ_7eu4data7history1__NtB1Z_15ProvinceHistoryNtBS_11Deserialize11deserialize9___VisitorEB21_
FNDA:0,_RINvXs2_NtCs5WJ3N3zt60z_6eu4txt2deQNtB6_12DeserializerNtNtCs2oGb9mSlBjX_10serde_core2de12Deserializer15deserialize_mapNtNvXNvNtCs3CepgdPYNPZ_7eu4data9countries1__NtB1Z_7CountryNtBS_11Deserialize11deserialize14___FieldVisitorEB21_
FNDA:2,_RINvXs2_NtCs5WJ3N3zt60z_6eu4txt2deQNtB6_12DeserializerNtNtCs2oGb9mSlBjX_10serde_core2de12Deserializer15deserialize_mapNtNvXNvNtCs3CepgdPYNPZ_7eu4data9countries1__NtB1Z_7CountryNtBS_11Deserialize11deserialize9___VisitorEB21_
FNDA:0,_RINvXs2_NtCs5WJ3N3zt60z_6eu4txt2deQNtB6_12DeserializerNtNtCs2oGb9mSlBjX_10serde_core2de12Deserializer15deserialize_mapNtNvXsY_NtBS_5implshNtBS_11Deserialize11deserialize16PrimitiveVisitorECs3CepgdPYNPZ_7eu4data
FNDA:1,_RINvXs2_NtCs5WJ3N3zt60z_6eu4txt2deQNtB6_12DeserializerNtNtCs2oGb9mSlBjX_10serde_core2de12Deserializer15deserialize_seqINtNvXsh_NtBS_5implsINtNtCs2YhQnMI27q1_5alloc3vec3VecpENtBS_11Deserialize11deserialize10VecVisitorfEECs3CepgdPYNPZ_7eu4data
FNDA:2,_RINvXs2_NtCs5WJ3N3zt60z_6eu4txt2deQNtB6_12DeserializerNtNtCs2oGb9mSlBjX_10serde_core2de12Deserializer15deserialize_seqINtNvXsh_NtBS_5implsINtNtCs2YhQnMI27q1_5alloc3vec3VecpENtBS_11Deserialize11deserialize10VecVisitorhEECs3CepgdPYNPZ_7eu4data
FNDA:0,_RINvXs2_NtCs5WJ3N3zt60z_6eu4txt2deQNtB6_12DeserializerNtNtCs2oGb9mSlBjX_10serde_core2de12Deserializer15deserialize_seqNtNtBS_11ignored_any10IgnoredAnyECs3CepgdPYNPZ_7eu4data
FNDA:0,_RINvXs2_NtCs5WJ3N3zt60z_6eu4txt2deQNtB6_12DeserializerNtNtCs2oGb9mSlBjX_10serde_core2de12Deserializer15deserialize_seqNtNvXNtNtCsbw3WoEYoaD8_10serde_json5value2deNtB1Z_5ValueNtBS_11Deserialize11deserialize12ValueVisitorECs3CepgdPYNPZ_7eu4data
FNDA:0,_RINvXs2_NtCs5WJ3N3zt60z_6eu4txt2deQNtB6_12DeserializerNtNtCs2oGb9mSlBjX_10serde_core2de12Deserializer15deserialize_seqNtNvXNvCs3CepgdPYNPZ_7eu4data1__NtB1Z_9TradegoodNtBS_11Deserialize11deserialize14___FieldVisitorEB1Z_
FNDA:0,_RINvXs2_NtCs5WJ3N3zt60z_6eu4txt2deQNtB6_12DeserializerNtNtCs2oGb9mSlBjX_10serde_core2de12Deserializer15deserialize_seqNtNvXNvNtCs3CepgdPYNPZ_7eu4data7history1__NtB1Z_15ProvinceHistoryNtBS_11Deserialize11deserialize14___FieldVisitorEB21_
FNDA:0,_RINvXs2_NtCs5WJ3N3zt60z_6eu4txt2deQNtB6_12DeserializerNtNtCs2oGb9mSlBjX_10serde_core2de12Deserializer15deserialize_seqNtNvXNvNtCs3CepgdPYNPZ_7eu4data9countries1__NtB1Z_7CountryNtBS_11Deserialize11deserialize14___FieldVisitorEB21_
FNDA:0,_RINvXs2_NtCs5WJ3N3zt60z_6eu4txt2deQNtB6_12DeserializerNtNtCs2oGb9mSlBjX_10serde_core2de12Deserializer15deserialize_seqNtNvXsY_NtBS_5implshNtBS_11Deserialize11deserialize16PrimitiveVisitorECs3CepgdPYNPZ_7eu4data
FNDA:5,_RINvXs2_NtCs5WJ3N3zt60z_6eu4txt2deQNtB6_12DeserializerNtNtCs2oGb9mSlBjX_10serde_core2de12Deserializer15deserialize_strNtNtBS_5impls13StringVisitorECs3CepgdPYNPZ_7eu4data
FNDA:0,_RINvXs2_NtCs5WJ3N3zt60z_6eu4txt2deQNtB6_12DeserializerNtNtCs2oGb9mSlBjX_10serde_core2de12Deserializer15deserialize_strNtNtNtCsbw3WoEYoaD8_10serde_json5value2de13KeyClassifierECs3CepgdPYNPZ_7eu4data
FNDA:1,_RINvXs2_NtCs5WJ3N3zt60z_6eu4txt2deQNtB6_12DeserializerNtNtCs2oGb9mSlBjX_10serde_core2de12Deserializer18deserialize_optionINtNtBS_5impls13OptionVisitorINtNtNtNtCs9V5XLWeEmQj_3std11collections4hash3map7HashMapNtNtCs2YhQnMI27q1_5alloc6string6StringNtNtCsbw3WoEYoaD8_10serde_json5value5ValueEEECs3CepgdPYNPZ_7eu4data
FNDA:0,_RINvXs2_NtCs5WJ3N3zt60z_6eu4txt2deQNtB6_12DeserializerNtNtCs2oGb9mSlBjX_10serde_core2de12Deserializer18deserialize_optionINtNtBS_5impls13OptionVisitorINtNtNtNtCs9V5XLWeEmQj_3std11collections4hash3map7HashMapNtNtCs2YhQnMI27q1_5alloc6string6StringfEEECs3CepgdPYNPZ_7eu4data
FNDA:3,_RINvXs2_NtCs5WJ3N3zt60z_6eu4txt2deQNtB6_12DeserializerNtNtCs2oGb9mSlBjX_10serde_core2de12Deserializer18deserialize_optionINtNtBS_5impls13OptionVisitorNtNtCs2YhQnMI27q1_5alloc6string6StringEECs3CepgdPYNPZ_7eu4data
FNDA:2,_RINvXs2_NtCs5WJ3N3zt60z_6eu4txt2deQNtB6_12DeserializerNtNtCs2oGb9mSlBjX_10serde_core2de12Deserializer18deserialize_optionINtNtBS_5impls13OptionVisitorfEECs3CepgdPYNPZ_7eu4data
FNDA:5,_RINvXs2_NtCs5WJ3N3zt60z_6eu4txt2deQNtB6_12DeserializerNtNtCs2oGb9mSlBjX_10serde_core2de12Deserializer18deserialize_stringNtNtBS_5impls13StringVisitorECs3CepgdPYNPZ_7eu4data
FNDA:1,_RINvXs2_NtCs5WJ3N3zt60z_6eu4txt2deQNtB6_12DeserializerNtNtCs2oGb9mSlBjX_10serde_core2de12Deserializer18deserialize_structNtNvXNvCs3CepgdPYNPZ_7eu4data1__NtB22_9TradegoodNtBS_11Deserialize11deserialize9___VisitorEB22_
FNDA:3,_RINvXs2_NtCs5WJ3N3zt60z_6eu4txt2deQNtB6_12DeserializerNtNtCs2oGb9mSlBjX_10serde_core2de12Deserializer18deserialize_structNtNvXNvNtCs3CepgdPYNPZ_7eu4data7history1__NtB22_15ProvinceHistoryNtBS_11Deserialize11deserialize9___VisitorEB24_
FNDA:2,_RINvXs2_NtCs5WJ3N3zt60z_6eu4txt2deQNtB6_12DeserializerNtNtCs2oGb9mSlBjX_10serde_core2de12Deserializer18deserialize_structNtNvXNvNtCs3CepgdPYNPZ_7eu4data9countries1__NtB22_7CountryNtBS_11Deserialize11deserialize9___VisitorEB24_
FNDA:0,_RINvXs4_NtCs5WJ3N3zt60z_6eu4txt2deNtB6_14CommaSeparatedNtNtCs2oGb9mSlBjX_10serde_core2de9SeqAccess17next_element_seedINtNtCs6joXTnudZij_4core6marker11PhantomDataNtNtBT_11ignored_any10IgnoredAnyEECs3CepgdPYNPZ_7eu4data
FNDA:0,_RINvXs4_NtCs5WJ3N3zt60z_6eu4txt2deNtB6_14CommaSeparatedNtNtCs2oGb9mSlBjX_10serde_core2de9SeqAccess17next_element_seedINtNtCs6joXTnudZij_4core6marker11PhantomDataNtNtCsbw3WoEYoaD8_10serde_json5value5ValueEECs3CepgdPYNPZ_7eu4data
FNDA:4,_RINvXs4_NtCs5WJ3N3zt60z_6eu4txt2deNtB6_14CommaSeparatedNtNtCs2oGb9mSlBjX_10serde_core2de9SeqAccess17next_element_seedINtNtCs6joXTnudZij_4core6marker11PhantomDatafEECs3CepgdPYNPZ_7eu4data
FNDA:8,_RINvXs4_NtCs5WJ3N3zt60z_6eu4txt2deNtB6_14CommaSeparatedNtNtCs2oGb9mSlBjX_10serde_core2de9SeqAccess17next_element_seedINtNtCs6joXTnudZij_4core6marker11PhantomDatahEECs3CepgdPYNPZ_7eu4data
FNDA:0,_RINvXs5_NtCs5WJ3N3zt60z_6eu4txt2deNtB6_14CommaSeparatedNtNtCs2oGb9mSlBjX_10serde_core2de9MapAccess13next_key_seedINtNtCs6joXTnudZij_4core6marker11PhantomDataNtNtBT_11ignored_any10IgnoredAnyEECs3CepgdPYNPZ_7eu4data
FNDA:4,_RINvXs5_NtCs5WJ3N3zt60z_6eu4txt2deNtB6_14CommaSeparatedNtNtCs2oGb9mSlBjX_10serde_core2de9MapAccess13next_key_seedINtNtCs6joXTnudZij_4core6marker11PhantomDataNtNtCs2YhQnMI27q1_5alloc6string6StringEECs3CepgdPYNPZ_7eu4data
FNDA:4,_RINvXs5_NtCs5WJ3N3zt60z_6eu4txt2deNtB6_14CommaSeparatedNtNtCs2oGb9mSlBjX_10serde_core2de9MapAccess13next_key_seedINtNtCs6joXTnudZij_4core6marker11PhantomDataNtNvXNvCs3CepgdPYNPZ_7eu4data1__NtB2C_9TradegoodNtBT_11Deserialize11deserialize7___FieldEEB2C_
FNDA:8,_RINvXs5_NtCs5WJ3N3zt60z_6eu4txt2deNtB6_14CommaSeparatedNtNtCs2oGb9mSlBjX_10serde_core2de9MapAccess13next_key_seedINtNtCs6joXTnudZij_4core6marker11PhantomDataNtNvXNvNtCs3CepgdPYNPZ_7eu4data7history1__NtB2C_15ProvinceHistoryNtBT_11Deserialize11deserialize7___FieldEEB2E_
FNDA:4,_RINvXs5_NtCs5WJ3N3zt60z_6eu4txt2deNtB6_14CommaSeparatedNtNtCs2oGb9mSlBjX_10serde_core2de9MapAccess13next_key_seedINtNtCs6joXTnudZij_4core6marker11PhantomDataNtNvXNvNtCs3CepgdPYNPZ_7eu4data9countries1__NtB2C_7CountryNtBT_11Deserialize11deserialize7___FieldEEB2E_
FNDA:0,_RINvXs5_NtCs5WJ3N3zt60z_6eu4txt2deNtB6_14CommaSeparatedNtNtCs2oGb9mSlBjX_10serde_core2de9MapAccess13next_key_seedNtNtNtCsbw3WoEYoaD8_10serde_json5value2de13KeyClassifierECs3CepgdPYNPZ_7eu4data
FNDA:1,_RINvXs5_NtCs5WJ3N3zt60z_6eu4txt2deNtB6_14CommaSeparatedNtNtCs2oGb9mSlBjX_10serde_core2de9MapAccess15next_value_seedINtNtCs6joXTnudZij_4core6marker11PhantomDataINtNtB1U_6option6OptionINtNtNtNtCs9V5XLWeEmQj_3std11collections4hash3map7HashMapNtNtCs2YhQnMI27q1_5alloc6string6StringNtNtCsbw3WoEYoaD8_10serde_json5value5ValueEEEECs3CepgdPYNPZ_7eu4data
FNDA:0,_RINvXs5_NtCs5WJ3N3zt60z_6eu4txt2deNtB6_14CommaSeparatedNtNtCs2oGb9mSlBjX_10serde_core2de9MapAccess15next_value_seedINtNtCs6joXTnudZij_4core6marker11PhantomDataINtNtB1U_6option6OptionINtNtNtNtCs9V5XLWeEmQj_3std11collections4hash3map7HashMapNtNtCs2YhQnMI27q1_5alloc6string6StringfEEEECs3CepgdPYNPZ_7eu4data
FNDA:3,_RINvXs5_NtCs5WJ3N3zt60z_6eu4txt2deNtB6_14CommaSeparatedNtNtCs2oGb9mSlBjX_10serde_core2de9MapAccess15next_value_seedINtNtCs6joXTnudZij_4core6marker11PhantomDataINtNtB1U_6option6OptionNtNtCs2YhQnMI27q1_5alloc6string6StringEEECs3CepgdPYNPZ_7eu4data
FNDA:2,_RINvXs5_NtCs5WJ3N3zt60z_6eu4txt2deNtB6_14CommaSeparatedNtNtCs2oGb9mSlBjX_10serde_core2de9MapAccess15next_value_seedINtNtCs6joXTnudZij_4core6marker11PhantomDataINtNtB1U_6option6OptionfEEECs3CepgdPYNPZ_7eu4data
FNDA:1,_RINvXs5_NtCs5WJ3N3zt60z_6eu4txt2deNtB6_14CommaSeparatedNtNtCs2oGb9mSlBjX_10serde_core2de9MapAccess15next_value_seedINtNtCs6joXTnudZij_4core6marker11PhantomDataINtNtCs2YhQnMI27q1_5alloc3vec3VecfEEECs3CepgdPYNPZ_7eu4data
FNDA:2,_RINvXs5_NtCs5WJ3N3zt60z_6eu4txt2deNtB6_14CommaSeparatedNtNtCs2oGb9mSlBjX_10serde_core2de9MapAccess15next_value_seedINtNtCs6joXTnudZij_4core6marker11PhantomDataINtNtCs2YhQnMI27q1_5alloc3vec3VechEEECs3CepgdPYNPZ_7eu4data
FNDA:1,_RINvXs5_NtCs5WJ3N3zt60z_6eu4txt2deNtB6_14CommaSeparatedNtNtCs2oGb9mSlBjX_10serde_core2de9MapAccess15next_value_seedINtNtCs6joXTnudZij_4core6marker11PhantomDataINtNtNtNtCs9V5XLWeEmQj_3std11collections4hash3map7HashMapNtNtCs2YhQnMI27q1_5alloc6string6StringfEEECs3CepgdPYNPZ_7eu4data
FNDA:0,_RINvXs5_NtCs5WJ3N3zt60z_6eu4txt2deNtB6_14CommaSeparatedNtNtCs2oGb9mSlBjX_10serde_core2de9MapAccess15next_value_seedINtNtCs6joXTnudZij_4core6marker11PhantomDataNtNtBT_11ignored_any10IgnoredAnyEECs3CepgdPYNPZ_7eu4data
FNDA:1,_RINvXs5_NtCs5WJ3N3zt60z_6eu4txt2deNtB6_14CommaSeparatedNtNtCs2oGb9mSlBjX_10serde_core2de9MapAccess15next_value_seedINtNtCs6joXTnudZij_4core6marker11PhantomDataNtNtCsbw3WoEYoaD8_10serde_json5value5ValueEECs3CepgdPYNPZ_7eu4data
FNDA:1,_RINvXs5_NtCs5WJ3N3zt60z_6eu4txt2deNtB6_14CommaSeparatedNtNtCs2oGb9mSlBjX_10serde_core2de9MapAccess15next_value_seedINtNtCs6joXTnudZij_4core6marker11PhantomDatafEECs3CepgdPYNPZ_7eu4data
FNDA:0,_RNCINvNtCs5WJ3N3zt60z_6eu4txt2de9from_nodeNtCs3CepgdPYNPZ_7eu4data9TradegoodE0BG_
FNDA:1,_RNCINvNtCs5WJ3N3zt60z_6eu4txt2de9from_nodeNtNtCs3CepgdPYNPZ_7eu4data7history15ProvinceHistoryE0BI_
FNDA:0,_RNCINvNtCs5WJ3N3zt60z_6eu4txt2de9from_nodeNtNtCs3CepgdPYNPZ_7eu4data9countries7CountryE0BI_
FNDA:0,_RNCINvXs2_NtCs5WJ3N3zt60z_6eu4txt2deQNtB8_12DeserializerNtNtCs2oGb9mSlBjX_10serde_core2de12Deserializer15deserialize_anyNtNtBU_11ignored_any10IgnoredAnyE0Cs3CepgdPYNPZ_7eu4data
FNDA:0,_RNCINvXs2_NtCs5WJ3N3zt60z_6eu4txt2deQNtB8_12DeserializerNtNtCs2oGb9mSlBjX_10serde_core2de12Deserializer15deserialize_anyNtNvXNtNtCsbw3WoEYoaD8_10serde_json5value2deNtB21_5ValueNtBU_11Deserialize11deserialize12ValueVisitorE0Cs3CepgdPYNPZ_7eu4data
FNDA:0,_RNCINvXs2_NtCs5WJ3N3zt60z_6eu4txt2deQNtB8_12DeserializerNtNtCs2oGb9mSlBjX_10serde_core2de12Deserializer15deserialize_anyNtNvXNvCs3CepgdPYNPZ_7eu4data1__NtB21_9TradegoodNtBU_11Deserialize11deserialize14___FieldVisitorE0B21_
FNDA:0,_RNCINvXs2_NtCs5WJ3N3zt60z_6eu4txt2deQNtB8_12DeserializerNtNtCs2oGb9mSlBjX_10serde_core2de12Deserializer15deserialize_anyNtNvXNvNtCs3CepgdPYNPZ_7eu4data7history1__NtB21_15ProvinceHistoryNtBU_11Deserialize11deserialize14___FieldVisitorE0B23_
FNDA:0,_RNCINvXs2_NtCs5WJ3N3zt60z_6eu4txt2deQNtB8_12DeserializerNtNtCs2oGb9mSlBjX_10serde_core2de12Deserializer15deserialize_anyNtNvXNvNtCs3CepgdPYNPZ_7eu4data9countries1__NtB21_7CountryNtBU_11Deserialize11deserialize14___FieldVisitorE0B23_
FNDA:0,_RNCINvXs2_NtCs5WJ3N3zt60z_6eu4txt2deQNtB8_12DeserializerNtNtCs2oGb9mSlBjX_10serde_core2de12Deserializer15deserialize_anyNtNvXsY_NtBU_5implshNtBU_11Deserialize11deserialize16PrimitiveVisitorE0Cs3CepgdPYNPZ_7eu4data
FNDA:3,_RINvNtCs5WJ3N3zt60z_6eu4txt2de9from_nodeINtNtNtNtCs9V5XLWeEmQj_3std11collections4hash3map7HashMapNtNtCs2YhQnMI27q1_5alloc6string6StringNtCs1DvYjaJLFM2_7eu4data9TradegoodEECs1JhGRdf2CJD_5eu4rs
FNDA:3,_RINvNtCs5WJ3N3zt60z_6eu4txt2de9from_nodeNtNtCs1DvYjaJLFM2_7eu4data3map10DefaultMapECs1JhGRdf2CJD_5eu4rs
FNDA:0,_RINvXs2_NtCs5WJ3N3zt60z_6eu4txt2deQNtB6_12DeserializerNtNtCs2oGb9mSlBjX_10serde_core2de12Deserializer15deserialize_anyNtNvXNtNtCsbw3WoEYoaD8_10serde_json5value2deNtB1Z_5ValueNtBS_11Deserialize11deserialize12ValueVisitorECs1JhGRdf2CJD_5eu4rs
FNDA:3,_RINvXs2_NtCs5WJ3N3zt60z_6eu4txt2deQNtB6_12DeserializerNtNtCs2oGb9mSlBjX_10serde_core2de12Deserializer15deserialize_anyNtNvXNvCs1DvYjaJLFM2_7eu4data1__NtB1Z_9TradegoodNtBS_11Deserialize11deserialize14___FieldVisitorECs1JhGRdf2CJD_5eu4rs
FNDA:6,_RINvXs2_NtCs5WJ3N3zt60z_6eu4txt2deQNtB6_12DeserializerNtNtCs2oGb9mSlBjX_10serde_core2de12Deserializer15deserialize_anyNtNvXNvNtCs1DvYjaJLFM2_7eu4data3maps_1__NtB1Z_10DefaultMapNtBS_11Deserialize11deserialize14___FieldVisitorECs1JhGRdf2CJD_5eu4rs
FNDA:3,_RINvXs2_NtCs5WJ3N3zt60z_6eu4txt2deQNtB6_12DeserializerNtNtCs2oGb9mSlBjX_10serde_core2de12Deserializer15deserialize_anyNtNvXs14_NtBS_5implsmNtBS_11Deserialize11deserialize16PrimitiveVisitorECs1JhGRdf2CJD_5eu4rs
FNDA:3,_RINvXs2_NtCs5WJ3N3zt60z_6eu4txt2deQNtB6_12DeserializerNtNtCs2oGb9mSlBjX_10serde_core2de12Deserializer15deserialize_mapINtNvXs3e_NtBS_5implsINtNtNtNtCs9V5XLWeEmQj_3std11collections4hash3map7HashMappppENtBS_11Deserialize11deserialize10MapVisitorNtNtCs2YhQnMI27q1_5alloc6string6StringNtCs1DvYjaJLFM2_7eu4data9TradegoodNtNtNtB2m_4hash6random11RandomStateEECs1JhGRdf2CJD_5eu4rs
FNDA:0,_RINvXs2_NtCs5WJ3N3zt60z_6eu4txt2deQNtB6_12DeserializerNtNtCs2oGb9mSlBjX_10serde_core2de12Deserializer15deserialize_mapINtNvXs3e_NtBS_5implsINtNtNtNtCs9V5XLWeEmQj_3std11collections4hash3map7HashMappppENtBS_11Deserialize11deserialize10MapVisitorNtNtCs2YhQnMI27q1_5alloc6string6StringNtNtCsbw3WoEYoaD8_10serde_json5value5ValueNtNtNtB2m_4hash6random11RandomStateEECs1JhGRdf2CJD_5eu4rs
FNDA:0,_RINvXs2_NtCs5WJ3N3zt60z_6eu4txt2deQNtB6_12DeserializerNtNtCs2oGb9mSlBjX_10serde_core2de12Deserializer15deserialize_mapINtNvXs3e_NtBS_5implsINtNtNtNtCs9V5XLWeEmQj_3std11collections4hash3map7HashMappppENtBS_11Deserialize11deserialize10MapVisitorNtNtCs2YhQnMI27q1_5alloc6string6StringfNtNtNtB2m_4hash6random11RandomStateEECs1JhGRdf2CJD_5eu4rs
FNDA:0,_RINvXs2_NtCs5WJ3N3zt60z_6eu4txt2deQNtB6_12DeserializerNtNtCs2oGb9mSlBjX_10serde_core2de12Deserializer15deserialize_mapNtNvXNtNtCsbw3WoEYoaD8_10serde_json5value2deNtB1Z_5ValueNtBS_11Deserialize11deserialize12ValueVisitorECs1JhGRdf2CJD_5eu4rs
FNDA:0,_RINvXs2_NtCs5WJ3N3zt60z_6eu4txt2deQNtB6_12DeserializerNtNtCs2oGb9mSlBjX_10serde_core2de12Deserializer15deserialize_mapNtNvXNvCs1DvYjaJLFM2_7eu4data1__NtB1Z_9TradegoodNtBS_11Deserialize11deserialize14___FieldVisitorECs1JhGRdf2CJD_5eu4rs
FNDA:3,_RINvXs2_NtCs5WJ3N3zt60z_6eu4txt2deQNtB6_12DeserializerNtNtCs2oGb9mSlBjX_10serde_core2de12Deserializer15deserialize_mapNtNvXNvCs1DvYjaJLFM2_7eu4data1__NtB1Z_9TradegoodNtBS_11Deserialize11deserialize9___VisitorECs1JhGRdf2CJD_5eu4rs
FNDA:0,_RINvXs2_NtCs5WJ3N3zt60z_6eu4txt2deQNtB6_12DeserializerNtNtCs2oGb9mSlBjX_10serde_core2de12Deserializer15deserialize_mapNtNvXNvNtCs1DvYjaJLFM2_7eu4data3maps_1__NtB1Z_10DefaultMapNtBS_11Deserialize11deserialize14___FieldVisitorECs1JhGRdf2CJD_5eu4rs
FNDA:3,_RINvXs2_NtCs5WJ3N3zt60z_6eu4txt2deQNtB6_12DeserializerNtNtCs2oGb9mSlBjX_10serde_core2de12Deserializer15deserialize_mapNtNvXNvNtCs1DvYjaJLFM2_7eu4data3maps_1__NtB1Z_10DefaultMapNtBS_11Deserialize11deserialize9___VisitorECs1JhGRdf2CJD_5eu4rs
FNDA:0,_RINvXs2_NtCs5WJ3N3zt60z_6eu4txt2deQNtB6_12DeserializerNtNtCs2oGb9mSlBjX_10serde_core2de12Deserializer15deserialize_mapNtNvXs14_NtBS_5implsmNtBS_11Deserialize11deserialize16PrimitiveVisitorECs1JhGRdf2CJD_5eu4rs
FNDA:3,_RINvXs2_NtCs5WJ3N3zt60z_6eu4txt2deQNtB6_12DeserializerNtNtCs2oGb9mSlBjX_10serde_core2de12Deserializer15deserialize_seqINtNvXsh_NtBS_5implsINtNtCs2YhQnMI27q1_5alloc3vec3VecpENtBS_11Deserialize11deserialize10VecVisitorfEECs1JhGRdf2CJD_5eu4rs
FNDA:3,_RINvXs2_NtCs5WJ3N3zt60z_6eu4txt2deQNtB6_12DeserializerNtNtCs2oGb9mSlBjX_10serde_core2de12Deserializer15deserialize_seqINtNvXsh_NtBS_5implsINtNtCs2YhQnMI27q1_5alloc3vec3VecpENtBS_11Deserialize11deserialize10VecVisitormEECs1JhGRdf2CJD_5eu4rs
FNDA:0,_RINvXs2_NtCs5WJ3N3zt60z_6eu4txt2deQNtB6_12DeserializerNtNtCs2oGb9mSlBjX_10serde_core2de12Deserializer15deserialize_seqNtNvXNtNtCsbw3WoEYoaD8_10serde_json5value2deNtB1Z_5ValueNtBS_11Deserialize11deserialize12ValueVisitorECs1JhGRdf2CJD_5eu4rs
FNDA:0,_RINvXs2_NtCs5WJ3N3zt60z_6eu4txt2deQNtB6_12DeserializerNtNtCs2oGb9mSlBjX_10serde_core2de12Deserializer15deserialize_seqNtNvXNvCs1DvYjaJLFM2_7eu4data1__NtB1Z_9TradegoodNtBS_11Deserialize11deserialize14___FieldVisitorECs1JhGRdf2CJD_5eu4rs
FNDA:0,_RINvXs2_NtCs5WJ3N3zt60z_6eu4txt2deQNtB6_12DeserializerNtNtCs2oGb9mSlBjX_10serde_core2de12Deserializer15deserialize_seqNtNvXNvNtCs1DvYjaJLFM2_7eu4data3maps_1__NtB1Z_10DefaultMapNtBS_11Deserialize11deserialize14___FieldVisitorECs1JhGRdf2CJD_5eu4rs
FNDA:0,_RINvXs2_NtCs5WJ3N3zt60z_6eu4txt2deQNtB6_12DeserializerNtNtCs2oGb9mSlBjX_10serde_core2de12Deserializer15deserialize_seqNtNvXs14_NtBS_5implsmNtBS_11Deserialize11deserialize16PrimitiveVisitorECs1JhGRdf2CJD_5eu4rs
FNDA:0,_RINvXs2_NtCs5WJ3N3zt60z_6eu4txt2deQNtB6_12DeserializerNtNtCs2oGb9mSlBjX_10serde_core2de12Deserializer15deserialize_strNtNtNtCsbw3WoEYoaD8_10serde_json5value2de13KeyClassifierECs1JhGRdf2CJD_5eu4rs
FNDA:0,_RINvXs2_NtCs5WJ3N3zt60z_6eu4txt2deQNtB6_12DeserializerNtNtCs2oGb9mSlBjX_10serde_core2de12Deserializer18deserialize_optionINtNtBS_5impls13OptionVisitorINtNtNtNtCs9V5XLWeEmQj_3std11collections4hash3map7HashMapNtNtCs2YhQnMI27q1_5alloc6string6StringNtNtCsbw3WoEYoaD8_10serde_json5value5ValueEEECs1JhGRdf2CJD_5eu4rs
FNDA:0,_RINvXs2_NtCs5WJ3N3zt60z_6eu4txt2deQNtB6_12DeserializerNtNtCs2oGb9mSlBjX_10serde_core2de12Deserializer18deserialize_optionINtNtBS_5impls13OptionVisitorINtNtNtNtCs9V5XLWeEmQj_3std11collections4hash3map7HashMapNtNtCs2YhQnMI27q1_5alloc6string6StringfEEECs1JhGRdf2CJD_5eu4rs
FNDA:3,_RINvXs2_NtCs5WJ3N3zt60z_6eu4txt2deQNtB6_12DeserializerNtNtCs2oGb9mSlBjX_10serde_core2de12Deserializer18deserialize_structNtNvXNvCs1DvYjaJLFM2_7eu4data1__NtB22_9TradegoodNtBS_11Deserialize11deserialize9___VisitorECs1JhGRdf2CJD_5eu4rs
FNDA:3,_RINvXs2_NtCs5WJ3N3zt60z_6eu4txt2deQNtB6_12DeserializerNtNtCs2oGb9mSlBjX_10serde_core2de12Deserializer18deserialize_structNtNvXNvNtCs1DvYjaJLFM2_7eu4data3maps_1__NtB22_10DefaultMapNtBS_11Deserialize11deserialize9___VisitorECs1JhGRdf2CJD_5eu4rs
FNDA:0,_RINvXs4_NtCs5WJ3N3zt60z_6eu4txt2deNtB6_14CommaSeparatedNtNtCs2oGb9mSlBjX_10serde_core2de9SeqAccess17next_element_seedINtNtCs6joXTnudZij_4core6marker11PhantomDataNtNtCsbw3WoEYoaD8_10serde_json5value5ValueEECs1JhGRdf2CJD_5eu4rs
FNDA:12,_RINvXs4_NtCs5WJ3N3zt60z_6eu4txt2deNtB6_14CommaSeparatedNtNtCs2oGb9mSlBjX_10serde_core2de9SeqAccess17next_element_seedINtNtCs6joXTnudZij_4core6marker11PhantomDatafEECs1JhGRdf2CJD_5eu4rs
FNDA:6,_RINvXs4_NtCs5WJ3N3zt60z_6eu4txt2deNtB6_14CommaSeparatedNtNtCs2oGb9mSlBjX_10serde_core2de9SeqAccess17next_element_seedINtNtCs6joXTnudZij_4core6marker11PhantomDatamEECs1JhGRdf2CJD_5eu4rs
FNDA:6,_RINvXs5_NtCs5WJ3N3zt60z_6eu4txt2deNtB6_14CommaSeparatedNtNtCs2oGb9mSlBjX_10serde_core2de9MapAccess13next_key_seedINtNtCs6joXTnudZij_4core6marker11PhantomDataNtNtCs2YhQnMI27q1_5alloc6string6StringEECs1JhGRdf2CJD_5eu4rs
FNDA:6,_RINvXs5_NtCs5WJ3N3zt60z_6eu4txt2deNtB6_14CommaSeparatedNtNtCs2oGb9mSlBjX_10serde_core2de9MapAccess13next_key_seedINtNtCs6joXTnudZij_4core6marker11PhantomDataNtNvXNvCs1DvYjaJLFM2_7eu4data1__NtB2C_9TradegoodNtBT_11Deserialize11deserialize7___FieldEECs1JhGRdf2CJD_5eu4rs
FNDA:9,_RINvXs5_NtCs5WJ3N3zt60z_6eu4txt2deNtB6_14CommaSeparatedNtNtCs2oGb9mSlBjX_10serde_core2de9MapAccess13next_key_seedINtNtCs6joXTnudZij_4core6marker11PhantomDataNtNvXNvNtCs1DvYjaJLFM2_7eu4data3maps_1__NtB2C_10DefaultMapNtBT_11Deserialize11deserialize7___FieldEECs1JhGRdf2CJD_5eu4rs
FNDA:0,_RINvXs5_NtCs5WJ3N3zt60z_6eu4txt2deNtB6_14CommaSeparatedNtNtCs2oGb9mSlBjX_10serde_core2de9MapAccess13next_key_seedNtNtNtCsbw3WoEYoaD8_10serde_json5value2de13KeyClassifierECs1JhGRdf2CJD_5eu4rs
FNDA:0,_RINvXs5_NtCs5WJ3N3zt60z_6eu4txt2deNtB6_14CommaSeparatedNtNtCs2oGb9mSlBjX_10serde_core2de9MapAccess15next_value_seedINtNtCs6joXTnudZij_4core6marker11PhantomDataINtNtB1U_6option6OptionINtNtNtNtCs9V5XLWeEmQj_3std11collections4hash3map7HashMapNtNtCs2YhQnMI27q1_5alloc6string6StringNtNtCsbw3WoEYoaD8_10serde_json5value5ValueEEEECs1JhGRdf2CJD_5eu4rs
FNDA:0,_RINvXs5_NtCs5WJ3N3zt60z_6eu4txt2deNtB6_14CommaSeparatedNtNtCs2oGb9mSlBjX_10serde_core2de9MapAccess15next_value_seedINtNtCs6joXTnudZij_4core6marker11PhantomDataINtNtB1U_6option6OptionINtNtNtNtCs9V5XLWeEmQj_3std11collections4hash3map7HashMapNtNtCs2YhQnMI27q1_5alloc6string6StringfEEEECs1JhGRdf2CJD_5eu4rs
FNDA:3,_RINvXs5_NtCs5WJ3N3zt60z_6eu4txt2deNtB6_14CommaSeparatedNtNtCs2oGb9mSlBjX_10serde_core2de9MapAccess15next_value_seedINtNtCs6joXTnudZij_4core6marker11PhantomDataINtNtCs2YhQnMI27q1_5alloc3vec3VecfEEECs1JhGRdf2CJD_5eu4rs
FNDA:3,_RINvXs5_NtCs5WJ3N3zt60z_6eu4txt2deNtB6_14CommaSeparatedNtNtCs2oGb9mSlBjX_10serde_core2de9MapAccess15next_value_seedINtNtCs6joXTnudZij_4core6marker11PhantomDataINtNtCs2YhQnMI27q1_5alloc3vec3VecmEEECs1JhGRdf2CJD_5eu4rs
FNDA:0,_RINvXs5_NtCs5WJ3N3zt60z_6eu4txt2deNtB6_14CommaSeparatedNtNtCs2oGb9mSlBjX_10serde_core2de9MapAccess15next_value_seedINtNtCs6joXTnudZij_4core6marker11PhantomDataINtNtNtNtCs9V5XLWeEmQj_3std11collections4hash3map7HashMapNtNtCs2YhQnMI27q1_5alloc6string6StringfEEECs1JhGRdf2CJD_5eu4rs
FNDA:3,_RINvXs5_NtCs5WJ3N3zt60z_6eu4txt2deNtB6_14CommaSeparatedNtNtCs2oGb9mSlBjX_10serde_core2de9MapAccess15next_value_seedINtNtCs6joXTnudZij_4core6marker11PhantomDataNtCs1DvYjaJLFM2_7eu4data9TradegoodEECs1JhGRdf2CJD_5eu4rs
FNDA:0,_RINvXs5_NtCs5WJ3N3zt60z_6eu4txt2deNtB6_14CommaSeparatedNtNtCs2oGb9mSlBjX_10serde_core2de9MapAccess15next_value_seedINtNtCs6joXTnudZij_4core6marker11PhantomDataNtNtCsbw3WoEYoaD8_10serde_json5value5ValueEECs1JhGRdf2CJD_5eu4rs
FNDA:0,_RINvXs5_NtCs5WJ3N3zt60z_6eu4txt2deNtB6_14CommaSeparatedNtNtCs2oGb9mSlBjX_10serde_core2de9MapAccess15next_value_seedINtNtCs6joXTnudZij_4core6marker11PhantomDatafEECs1JhGRdf2CJD_5eu4rs
FNDA:0,_RNCINvNtCs5WJ3N3zt60z_6eu4txt2de9from_nodeINtNtNtNtCs9V5XLWeEmQj_3std11collections4hash3map7HashMapNtNtCs2YhQnMI27q1_5alloc6string6StringNtCs1DvYjaJLFM2_7eu4data9TradegoodEE0Cs1JhGRdf2CJD_5eu4rs
FNDA:0,_RNCINvNtCs5WJ3N3zt60z_6eu4txt2de9from_nodeNtNtCs1DvYjaJLFM2_7eu4data3map10DefaultMapE0Cs1JhGRdf2CJD_5eu4rs
FNDA:0,_RNCINvXs2_NtCs5WJ3N3zt60z_6eu4txt2deQNtB8_12DeserializerNtNtCs2oGb9mSlBjX_10serde_core2de12Deserializer15deserialize_anyNtNvXNtNtCsbw3WoEYoaD8_10serde_json5value2deNtB21_5ValueNtBU_11Deserialize11deserialize12ValueVisitorE0Cs1JhGRdf2CJD_5eu4rs
FNDA:0,_RNCINvXs2_NtCs5WJ3N3zt60z_6eu4txt2deQNtB8_12DeserializerNtNtCs2oGb9mSlBjX_10serde_core2de12Deserializer15deserialize_anyNtNvXNvCs1DvYjaJLFM2_7eu4data1__NtB21_9TradegoodNtBU_11Deserialize11deserialize14___FieldVisitorE0Cs1JhGRdf2CJD_5eu4rs
FNDA:0,_RNCINvXs2_NtCs5WJ3N3zt60z_6eu4txt2deQNtB8_12DeserializerNtNtCs2oGb9mSlBjX_10serde_core2de12Deserializer15deserialize_anyNtNvXNvNtCs1DvYjaJLFM2_7eu4data3maps_1__NtB21_10DefaultMapNtBU_11Deserialize11deserialize14___FieldVisitorE0Cs1JhGRdf2CJD_5eu4rs
FNDA:0,_RNCINvXs2_NtCs5WJ3N3zt60z_6eu4txt2deQNtB8_12DeserializerNtNtCs2oGb9mSlBjX_10serde_core2de12Deserializer15deserialize_anyNtNvXs14_NtBU_5implsmNtBU_11Deserialize11deserialize16PrimitiveVisitorE0Cs1JhGRdf2CJD_5eu4rs
FNDA:6,_RINvNtCs5WJ3N3zt60z_6eu4txt2de9from_nodeNtNtCs1DvYjaJLFM2_7eu4data7history15ProvinceHistoryEBG_
FNDA:1,_RINvNtCs5WJ3N3zt60z_6eu4txt2de9from_nodeNtNtCs1DvYjaJLFM2_7eu4data9countries7CountryEBG_
FNDA:0,_RINvXs1_NtCs5WJ3N3zt60z_6eu4txt2deNtB6_5ErrorNtNtCs2oGb9mSlBjX_10serde_core2de5Error6customNtNtCs6joXTnudZij_4core3fmt9ArgumentsECs1DvYjaJLFM2_7eu4data
FNDA:3,_RINvXs2_NtCs5WJ3N3zt60z_6eu4txt2deQNtB6_12DeserializerNtNtCs2oGb9mSlBjX_10serde_core2de12Deserializer15deserialize_anyNtNtBS_11ignored_any10IgnoredAnyECs1DvYjaJLFM2_7eu4data
FNDA:9,_RINvXs2_NtCs5WJ3N3zt60z_6eu4txt2deQNtB6_12DeserializerNtNtCs2oGb9mSlBjX_10serde_core2de12Deserializer15deserialize_anyNtNvXNvNtCs1DvYjaJLFM2_7eu4data7history1__NtB1Z_15ProvinceHistoryNtBS_11Deserialize11deserialize14___FieldVisitorEB21_
FNDA:1,_RINvXs2_NtCs5WJ3N3zt60z_6eu4txt2deQNtB6_12DeserializerNtNtCs2oGb9mSlBjX_10serde_core2de12Deserializer15deserialize_anyNtNvXNvNtCs1DvYjaJLFM2_7eu4data9countries1__NtB1Z_7CountryNtBS_11Deserialize11deserialize14___FieldVisitorEB21_
FNDA:3,_RINvXs2_NtCs5WJ3N3zt60z_6eu4txt2deQNtB6_12DeserializerNtNtCs2oGb9mSlBjX_10serde_core2de12Deserializer15deserialize_anyNtNvXsY_NtBS_5implshNtBS_11Deserialize11deserialize16PrimitiveVisitorECs1DvYjaJLFM2_7eu4data
FNDA:12,_RINvXs2_NtCs5WJ3N3zt60z_6eu4txt2deQNtB6_12DeserializerNtNtCs2oGb9mSlBjX_10serde_core2de12Deserializer15deserialize_f32NtNvXs1b_NtBS_5implsfNtBS_11Deserialize11deserialize16PrimitiveVisitorECs1DvYjaJLFM2_7eu4data
FNDA:0,_RINvXs2_NtCs5WJ3N3zt60z_6eu4txt2deQNtB6_12DeserializerNtNtCs2oGb9mSlBjX_10serde_core2de12Deserializer15deserialize_mapNtNtBS_11ignored_any10IgnoredAnyECs1DvYjaJLFM2_7eu4data
FNDA:0,_RINvXs2_NtCs5WJ3N3zt60z_6eu4txt2deQNtB6_12DeserializerNtNtCs2oGb9mSlBjX_10serde_core2de12Deserializer15deserialize_mapNtNvXNvNtCs1DvYjaJLFM2_7eu4data7history1__NtB1Z_15ProvinceHistoryNtBS_11Deserialize11deserialize14___FieldVisitorEB21_
FNDA:6,_RINvXs2_NtCs5WJ3N3zt60z_6eu4txt2deQNtB6_12DeserializerNtNtCs2oGb9mSlBjX_10serde_core2de12Deserializer15deserialize_mapNtNvXNvNtCs1DvYjaJLFM2_7eu4data7history1__NtB1Z_15ProvinceHistoryNtBS_11Deserialize11deserialize9___VisitorEB21_
FNDA:0,_RINvXs2_NtCs5WJ3N3zt60z_6eu4txt2deQNtB6_12DeserializerNtNtCs2oGb9mSlBjX_10serde_core2de12Deserializer15deserialize_mapNtNvXNvNtCs1DvYjaJLFM2_7eu4data9countries1__NtB1Z_7CountryNtBS_11Deserialize11deserialize14___FieldVisitorEB21_
FNDA:1,_RINvXs2_NtCs5WJ3N3zt60z_6eu4txt2deQNtB6_12DeserializerNtNtCs2oGb9mSlBjX_10serde_core2de12Deserializer15deserialize_mapNtNvXNvNtCs1DvYjaJLFM2_7eu4data9countries1__NtB1Z_7CountryNtBS_11Deserialize11deserialize9___VisitorEB21_
FNDA:0,_RINvXs2_NtCs5WJ3N3zt60z_6eu4txt2deQNtB6_12DeserializerNtNtCs2oGb9mSlBjX_10serde_core2de12Deserializer15deserialize_mapNtNvXsY_NtBS_5implshNtBS_11Deserialize11deserialize16PrimitiveVisitorECs1DvYjaJLFM2_7eu4data
FNDA:1,_RINvXs2_NtCs5WJ3N3zt60z_6eu4txt2deQNtB6_12DeserializerNtNtCs2oGb9mSlBjX_10serde_core2de12Deserializer15deserialize_seqINtNvXsh_NtBS_5implsINtNtCs2YhQnMI27q1_5alloc3vec3VecpENtBS_11Deserialize11deserialize10VecVisitorhEECs1DvYjaJLFM2_7eu4data
FNDA:0,_RINvXs2_NtCs5WJ3N3zt60z_6eu4txt2deQNtB6_12DeserializerNtNtCs2oGb9mSlBjX_10serde_core2de12Deserializer15deserialize_seqNtNtBS_11ignored_any10IgnoredAnyECs1DvYjaJLFM2_7eu4data
FNDA:0,_RINvXs2_NtCs5WJ3N3zt60z_6eu4txt2deQNtB6_12DeserializerNtNtCs2oGb9mSlBjX_10serde_core2de12Deserializer15deserialize_seqNtNvXNvNtCs1DvYjaJLFM2_7eu4data7history1__NtB1Z_15ProvinceHistoryNtBS_11Deserialize11deserialize14___FieldVisitorEB21_
FNDA:0,_RINvXs2_NtCs5WJ3N3zt60z_6eu4txt2deQNtB6_12DeserializerNtNtCs2oGb9mSlBjX_10serde_core2de12Deserializer15deserialize_seqNtNvXNvNtCs1DvYjaJLFM2_7eu4data9countries1__NtB1Z_7CountryNtBS_11Deserialize11deserialize14___FieldVisitorEB21_
FNDA:0,_RINvXs2_NtCs5WJ3N3zt60z_6eu4txt2deQNtB6_12DeserializerNtNtCs2oGb9mSlBjX_10serde_core2de12Deserializer15deserialize_seqNtNvXsY_NtBS_5implshNtBS_11Deserialize11deserialize16PrimitiveVisitorECs1DvYjaJLFM2_7eu4data
FNDA:13,_RINvXs2_NtCs5WJ3N3zt60z_6eu4txt2deQNtB6_12DeserializerNtNtCs2oGb9mSlBjX_10serde_core2de12Deserializer15deserialize_strNtNtBS_5impls13StringVisitorECs1DvYjaJLFM2_7eu4data
FNDA:9,_RINvXs2_NtCs5WJ3N3zt60z_6eu4txt2deQNtB6_12DeserializerNtNtCs2oGb9mSlBjX_10serde_core2de12Deserializer18deserialize_optionINtNtBS_5impls13OptionVisitorNtNtCs2YhQnMI27q1_5alloc6string6StringEECs1DvYjaJLFM2_7eu4data
FNDA:0,_RINvXs2_NtCs5WJ3N3zt60z_6eu4txt2deQNtB6_12DeserializerNtNtCs2oGb9mSlBjX_10serde_core2de12Deserializer18deserialize_optionINtNtBS_5impls13OptionVisitorfEECs1DvYjaJLFM2_7eu4data
FNDA:13,_RINvXs2_NtCs5WJ3N3zt60z_6eu4txt2deQNtB6_12DeserializerNtNtCs2oGb9mSlBjX_10serde_core2de12Deserializer18deserialize_stringNtNtBS_5impls13StringVisitorECs1DvYjaJLFM2_7eu4data
FNDA:6,_RINvXs2_NtCs5WJ3N3zt60z_6eu4txt2deQNtB6_12DeserializerNtNtCs2oGb9mSlBjX_10serde_core2de12Deserializer18deserialize_structNtNvXNvNtCs1DvYjaJLFM2_7eu4data7history1__NtB22_15ProvinceHistoryNtBS_11Deserialize11deserialize9___VisitorEB24_
FNDA:1,_RINvXs2_NtCs5WJ3N3zt60z_6eu4txt2deQNtB6_12DeserializerNtNtCs2oGb9mSlBjX_10serde_core2de12Deserializer18deserialize_structNtNvXNvNtCs1DvYjaJLFM2_7eu4data9countries1__NtB22_7CountryNtBS_11Deserialize11deserialize9___VisitorEB24_
FNDA:0,_RINvXs4_NtCs5WJ3N3zt60z_6eu4txt2deNtB6_14CommaSeparatedNtNtCs2oGb9mSlBjX_10serde_core2de9SeqAccess17next_element_seedINtNtCs6joXTnudZij_4core6marker11PhantomDataNtNtBT_11ignored_any10IgnoredAnyEECs1DvYjaJLFM2_7eu4data
FNDA:4,_RINvXs4_NtCs5WJ3N3zt60z_6eu4txt2deNtB6_14CommaSeparatedNtNtCs2oGb9mSlBjX_10serde_core2de9SeqAccess17next_element_seedINtNtCs6joXTnudZij_4core6marker11PhantomDatahEECs1DvYjaJLFM2_7eu4data
FNDA:0,_RINvXs5_NtCs5WJ3N3zt60z_6eu4txt2deNtB6_14CommaSeparatedNtNtCs2oGb9mSlBjX_10serde_core2de9MapAccess13next_key_seedINtNtCs6joXTnudZij_4core6marker11PhantomDataNtNtBT_11ignored_any10IgnoredAnyEECs1DvYjaJLFM2_7eu4data
FNDA:15,_RINvXs5_NtCs5WJ3N3zt60z_6eu4txt2deNtB6_14CommaSeparatedNtNtCs2oGb9mSlBjX_10serde_core2de9MapAccess13next_key_seedINtNtCs6joXTnudZij_4core6marker11PhantomDataNtNvXNvNtCs1DvYjaJLFM2_7eu4data7history1__NtB2C_15ProvinceHistoryNtBT_11Deserialize11deserialize7___FieldEEB2E_
FNDA:2,_RINvXs5_NtCs5WJ3N3zt60z_6eu4txt2deNtB6_14CommaSeparatedNtNtCs2oGb9mSlBjX_10serde_core2de9MapAccess13next_key_seedINtNtCs6joXTnudZij_4core6marker11PhantomDataNtNvXNvNtCs1DvYjaJLFM2_7eu4data9countries1__NtB2C_7CountryNtBT_11Deserialize11deserialize7___FieldEEB2E_
FNDA:9,_RINvXs5_NtCs5WJ3N3zt60z_6eu4txt2deNtB6_14CommaSeparatedNtNtCs2oGb9mSlBjX_10serde_core2de9MapAccess15next_value_seedINtNtCs6joXTnudZij_4core6marker11PhantomDataINtNtB1U_6option6OptionNtNtCs2YhQnMI27q1_5alloc6string6StringEEECs1DvYjaJLFM2_7eu4data
FNDA:0,_RINvXs5_NtCs5WJ3N3zt60z_6eu4txt2deNtB6_14CommaSeparatedNtNtCs2oGb9mSlBjX_10serde_core2de9MapAccess15next_value_seedINtNtCs6joXTnudZij_4core6marker11PhantomDataINtNtB1U_6option6OptionfEEECs1DvYjaJLFM2_7eu4data
FNDA:1,_RINvXs5_NtCs5WJ3N3zt60z_6eu4txt2deNtB6_14CommaSeparatedNtNtCs2oGb9mSlBjX_10serde_core2de9MapAccess15next_value_seedINtNtCs6joXTnudZij_4core6marker11PhantomDataINtNtCs2YhQnMI27q1_5alloc3vec3VechEEECs1DvYjaJLFM2_7eu4data
FNDA:3,_RINvXs5_NtCs5WJ3N3zt60z_6eu4txt2deNtB6_14CommaSeparatedNtNtCs2oGb9mSlBjX_10serde_core2de9MapAccess15next_value_seedINtNtCs6joXTnudZij_4core6marker11PhantomDataNtNtBT_11ignored_any10IgnoredAnyEECs1DvYjaJLFM2_7eu4data
FNDA:0,_RNCINvNtCs5WJ3N3zt60z_6eu4txt2de9from_nodeNtNtCs1DvYjaJLFM2_7eu4data7history15ProvinceHistoryE0BI_
FNDA:0,_RNCINvNtCs5WJ3N3zt60z_6eu4txt2de9from_nodeNtNtCs1DvYjaJLFM2_7eu4data9countries7CountryE0BI_
FNDA:0,_RNCINvXs2_NtCs5WJ3N3zt60z_6eu4txt2deQNtB8_12DeserializerNtNtCs2oGb9mSlBjX_10serde_core2de12Deserializer15deserialize_anyNtNtBU_11ignored_any10IgnoredAnyE0Cs1DvYjaJLFM2_7eu4data
FNDA:0,_RNCINvXs2_NtCs5WJ3N3zt60z_6eu4txt2deQNtB8_12DeserializerNtNtCs2oGb9mSlBjX_10serde_core2de12Deserializer15deserialize_anyNtNvXNvNtCs1DvYjaJLFM2_7eu4data7history1__NtB21_15ProvinceHistoryNtBU_11Deserialize11deserialize14___FieldVisitorE0B23_
FNDA:0,_RNCINvXs2_NtCs5WJ3N3zt60z_6eu4txt2deQNtB8_12DeserializerNtNtCs2oGb9mSlBjX_10serde_core2de12Deserializer15deserialize_anyNtNvXNvNtCs1DvYjaJLFM2_7eu4data9countries1__NtB21_7CountryNtBU_11Deserialize11deserialize14___FieldVisitorE0B23_
FNDA:0,_RNCINvXs2_NtCs5WJ3N3zt60z_6eu4txt2deQNtB8_12DeserializerNtNtCs2oGb9mSlBjX_10serde_core2de12Deserializer15deserialize_anyNtNvXsY_NtBU_5implshNtBU_11Deserialize11deserialize16PrimitiveVisitorE0Cs1DvYjaJLFM2_7eu4data
FNDA:1,_RINvNtCs5WJ3N3zt60z_6eu4txt2de9from_nodeINtNtNtNtCs9V5XLWeEmQj_3std11collections4hash3map7HashMapNtNtCs2YhQnMI27q1_5alloc6string6StringNtCs1DvYjaJLFM2_7eu4data9TradegoodEECs7SMMKP1jOwW_5eu4rs
FNDA:0,_RINvNtCs5WJ3N3zt60z_6eu4txt2de9from_nodeNtNtCs1DvYjaJLFM2_7eu4data3map10DefaultMapECs7SMMKP1jOwW_5eu4rs
FNDA:0,_RINvXs2_NtCs5WJ3N3zt60z_6eu4txt2deQNtB6_12DeserializerNtNtCs2oGb9mSlBjX_10serde_core2de12Deserializer15deserialize_anyNtNvXNtNtCsbw3WoEYoaD8_10serde_json5value2deNtB1Z_5ValueNtBS_11Deserialize11deserialize12ValueVisitorECs7SMMKP1jOwW_5eu4rs
FNDA:1,_RINvXs2_NtCs5WJ3N3zt60z_6eu4txt2deQNtB6_12DeserializerNtNtCs2oGb9mSlBjX_10serde_core2de12Deserializer15deserialize_anyNtNvXNvCs1DvYjaJLFM2_7eu4data1__NtB1Z_9TradegoodNtBS_11Deserialize11deserialize14___FieldVisitorECs7SMMKP1jOwW_5eu4rs
FNDA:0,_RINvXs2_NtCs5WJ3N3zt60z_6eu4txt2deQNtB6_12DeserializerNtNtCs2oGb9mSlBjX_10serde_core2de12Deserializer15deserialize_anyNtNvXNvNtCs1DvYjaJLFM2_7eu4data3maps_1__NtB1Z_10DefaultMapNtBS_11Deserialize11deserialize14___FieldVisitorECs7SMMKP1jOwW_5eu4rs
FNDA:0,_RINvXs2_NtCs5WJ3N3zt60z_6eu4txt2deQNtB6_12DeserializerNtNtCs2oGb9mSlBjX_10serde_core2de12Deserializer15deserialize_anyNtNvXs14_NtBS_5implsmNtBS_11Deserialize11deserialize16PrimitiveVisitorECs7SMMKP1jOwW_5eu4rs
FNDA:1,_RINvXs2_NtCs5WJ3N3zt60z_6eu4txt2deQNtB6_12DeserializerNtNtCs2oGb9mSlBjX_10serde_core2de12Deserializer15deserialize_mapINtNvXs3e_NtBS_5implsINtNtNtNtCs9V5XLWeEmQj_3std11collections4hash3map7HashMappppENtBS_11Deserialize11deserialize10MapVisitorNtNtCs2YhQnMI27q1_5alloc6string6StringNtCs1DvYjaJLFM2_7eu4data9TradegoodNtNtNtB2m_4hash6random11RandomStateEECs7SMMKP1jOwW_5eu4rs
FNDA:0,_RINvXs2_NtCs5WJ3N3zt60z_6eu4txt2deQNtB6_12DeserializerNtNtCs2oGb9mSlBjX_10serde_core2de12Deserializer15deserialize_mapINtNvXs3e_NtBS_5implsINtNtNtNtCs9V5XLWeEmQj_3std11collections4hash3map7HashMappppENtBS_11Deserialize11deserialize10MapVisitorNtNtCs2YhQnMI27q1_5alloc6string6StringNtNtCsbw3WoEYoaD8_10serde_json5value5ValueNtNtNtB2m_4hash6random11RandomStateEECs7SMMKP1jOwW_5eu4rs
FNDA:0,_RINvXs2_NtCs5WJ3N3zt60z_6eu4txt2deQNtB6_12DeserializerNtNtCs2oGb9mSlBjX_10serde_core2de12Deserializer15deserialize_mapINtNvXs3e_NtBS_5implsINtNtNtNtCs9V5XLWeEmQj_3std11collections4hash3map7HashMappppENtBS_11Deserialize11deserialize10MapVisitorNtNtCs2YhQnMI27q1_5alloc6string6StringfNtNtNtB2m_4hash6random11RandomStateEECs7SMMKP1jOwW_5eu4rs
FNDA:0,_RINvXs2_NtCs5WJ3N3zt60z_6eu4txt2deQNtB6_12DeserializerNtNtCs2oGb9mSlBjX_10serde_core2de12Deserializer15deserialize_mapNtNvXNtNtCsbw3WoEYoaD8_10serde_json5value2deNtB1Z_5ValueNtBS_11Deserialize11deserialize12ValueVisitorECs7SMMKP1jOwW_5eu4rs
FNDA:0,_RINvXs2_NtCs5WJ3N3zt60z_6eu4txt2deQNtB6_12DeserializerNtNtCs2oGb9mSlBjX_10serde_core2de12Deserializer15deserialize_mapNtNvXNvCs1DvYjaJLFM2_7eu4data1__NtB1Z_9TradegoodNtBS_11Deserialize11deserialize14___FieldVisitorECs7SMMKP1jOwW_5eu4rs
FNDA:1,_RINvXs2_NtCs5WJ3N3zt60z_6eu4txt2deQNtB6_12DeserializerNtNtCs2oGb9mSlBjX_10serde_core2de12Deserializer15deserialize_mapNtNvXNvCs1DvYjaJLFM2_7eu4data1__NtB1Z_9TradegoodNtBS_11Deserialize11deserialize9___VisitorECs7SMMKP1jOwW_5eu4rs
FNDA:0,_RINvXs2_NtCs5WJ3N3zt60z_6eu4txt2deQNtB6_12DeserializerNtNtCs2oGb9mSlBjX_10serde_core2de12Deserializer15deserialize_mapNtNvXNvNtCs1DvYjaJLFM2_7eu4data3maps_1__NtB1Z_10DefaultMapNtBS_11Deserialize11deserialize14___FieldVisitorECs7SMMKP1jOwW_5eu4rs
FNDA:0,_RINvXs2_NtCs5WJ3N3zt60z_6eu4txt2deQNtB6_12DeserializerNtNtCs2oGb9mSlBjX_10serde_core2de12Deserializer15deserialize_mapNtNvXNvNtCs1DvYjaJLFM2_7eu4data3maps_1__NtB1Z_10DefaultMapNtBS_11Deserialize11deserialize9___VisitorECs7SMMKP1jOwW_5eu4rs
FNDA:0,_RINvXs2_NtCs5WJ3N3zt60z_6eu4txt2deQNtB6_12DeserializerNtNtCs2oGb9mSlBjX_10serde_core2de12Deserializer15deserialize_mapNtNvXs14_NtBS_5implsmNtBS_11Deserialize11deserialize16PrimitiveVisitorECs7SMMKP1jOwW_5eu4rs
FNDA:1,_RINvXs2_NtCs5WJ3N3zt60z_6eu4txt2deQNtB6_12DeserializerNtNtCs2oGb9mSlBjX_10serde_core2de12Deserializer15deserialize_seqINtNvXsh_NtBS_5implsINtNtCs2YhQnMI27q1_5alloc3vec3VecpENtBS_11Deserialize11deserialize10VecVisitorfEECs7SMMKP1jOwW_5eu4rs
FNDA:0,_RINvXs2_NtCs5WJ3N3zt60z_6eu4txt2deQNtB6_12DeserializerNtNtCs2oGb9mSlBjX_10serde_core2de12Deserializer15deserialize_seqINtNvXsh_NtBS_5implsINtNtCs2YhQnMI27q1_5alloc3vec3VecpENtBS_11Deserialize11deserialize10VecVisitormEECs7SMMKP1jOwW_5eu4rs
FNDA:0,_RINvXs2_NtCs5WJ3N3zt60z_6eu4txt2deQNtB6_12DeserializerNtNtCs2oGb9mSlBjX_10serde_core2de12Deserializer15deserialize_seqNtNvXNtNtCsbw3WoEYoaD8_10serde_json5value2deNtB1Z_5ValueNtBS_11Deserialize11deserialize12ValueVisitorECs7SMMKP1jOwW_5eu4rs
FNDA:0,_RINvXs2_NtCs5WJ3N3zt60z_6eu4txt2deQNtB6_12DeserializerNtNtCs2oGb9mSlBjX_10serde_core2de12Deserializer15deserialize_seqNtNvXNvCs1DvYjaJLFM2_7eu4data1__NtB1Z_9TradegoodNtBS_11Deserialize11deserialize14___FieldVisitorECs7SMMKP1jOwW_5eu4rs
FNDA:0,_RINvXs2_NtCs5WJ3N3zt60z_6eu4txt2deQNtB6_12DeserializerNtNtCs2oGb9mSlBjX_10serde_core2de12Deserializer15deserialize_seqNtNvXNvNtCs1DvYjaJLFM2_7eu4data3maps_1__NtB1Z_10DefaultMapNtBS_11Deserialize11deserialize14___FieldVisitorECs7SMMKP1jOwW_5eu4rs
FNDA:0,_RINvXs2_NtCs5WJ3N3zt60z_6eu4txt2deQNtB6_12DeserializerNtNtCs2oGb9mSlBjX_10serde_core2de12Deserializer15deserialize_seqNtNvXs14_NtBS_5implsmNtBS_11Deserialize11deserialize16PrimitiveVisitorECs7SMMKP1jOwW_5eu4rs
FNDA:0,_RINvXs2_NtCs5WJ3N3zt60z_6eu4txt2deQNtB6_12DeserializerNtNtCs2oGb9mSlBjX_10serde_core2de12Deserializer15deserialize_strNtNtNtCsbw3WoEYoaD8_10serde_json5value2de13KeyClassifierECs7SMMKP1jOwW_5eu4rs
FNDA:0,_RINvXs2_NtCs5WJ3N3zt60z_6eu4txt2deQNtB6_12DeserializerNtNtCs2oGb9mSlBjX_10serde_core2de12Deserializer18deserialize_optionINtNtBS_5impls13OptionVisitorINtNtNtNtCs9V5XLWeEmQj_3std11collections4hash3map7HashMapNtNtCs2YhQnMI27q1_5alloc6string6StringNtNtCsbw3WoEYoaD8_10serde_json5value5ValueEEECs7SMMKP1jOwW_5eu4rs
FNDA:0,_RINvXs2_NtCs5WJ3N3zt60z_6eu4txt2deQNtB6_12DeserializerNtNtCs2oGb9mSlBjX_10serde_core2de12Deserializer18deserialize_optionINtNtBS_5impls13OptionVisitorINtNtNtNtCs9V5XLWeEmQj_3std11collections4hash3map7HashMapNtNtCs2YhQnMI27q1_5alloc6string6StringfEEECs7SMMKP1jOwW_5eu4rs
FNDA:1,_RINvXs2_NtCs5WJ3N3zt60z_6eu4txt2deQNtB6_12DeserializerNtNtCs2oGb9mSlBjX_10serde_core2de12Deserializer18deserialize_structNtNvXNvCs1DvYjaJLFM2_7eu4data1__NtB22_9TradegoodNtBS_11Deserialize11deserialize9___VisitorECs7SMMKP1jOwW_5eu4rs
FNDA:0,_RINvXs2_NtCs5WJ3N3zt60z_6eu4txt2deQNtB6_12DeserializerNtNtCs2oGb9mSlBjX_10serde_core2de12Deserializer18deserialize_structNtNvXNvNtCs1DvYjaJLFM2_7eu4data3maps_1__NtB22_10DefaultMapNtBS_11Deserialize11deserialize9___VisitorECs7SMMKP1jOwW_5eu4rs
FNDA:0,_RINvXs4_NtCs5WJ3N3zt60z_6eu4txt2deNtB6_14CommaSeparatedNtNtCs2oGb9mSlBjX_10serde_core2de9SeqAccess17next_element_seedINtNtCs6joXTnudZij_4core6marker11PhantomDataNtNtCsbw3WoEYoaD8_10serde_json5value5ValueEECs7SMMKP1jOwW_5eu4rs
FNDA:4,_RINvXs4_NtCs5WJ3N3zt60z_6eu4txt2deNtB6_14CommaSeparatedNtNtCs2oGb9mSlBjX_10serde_core2de9SeqAccess17next_element_seedINtNtCs6joXTnudZij_4core6marker11PhantomDatafEECs7SMMKP1jOwW_5eu4rs
FNDA:0,_RINvXs4_NtCs5WJ3N3zt60z_6eu4txt2deNtB6_14CommaSeparatedNtNtCs2oGb9mSlBjX_10serde_core2de9SeqAccess17next_element_seedINtNtCs6joXTnudZij_4core6marker11PhantomDatamEECs7SMMKP1jOwW_5eu4rs
FNDA:2,_RINvXs5_NtCs5WJ3N3zt60z_6eu4txt2deNtB6_14CommaSeparatedNtNtCs2oGb9mSlBjX_10serde_core2de9MapAccess13next_key_seedINtNtCs6joXTnudZij_4core6marker11PhantomDataNtNtCs2YhQnMI27q1_5alloc6string6StringEECs7SMMKP1jOwW_5eu4rs
FNDA:2,_RINvXs5_NtCs5WJ3N3zt60z_6eu4txt2deNtB6_14CommaSeparatedNtNtCs2oGb9mSlBjX_10serde_core2de9MapAccess13next_key_seedINtNtCs6joXTnudZij_4core6marker11PhantomDataNtNvXNvCs1DvYjaJLFM2_7eu4data1__NtB2C_9TradegoodNtBT_11Deserialize11deserialize7___FieldEECs7SMMKP1jOwW_5eu4rs
FNDA:0,_RINvXs5_NtCs5WJ3N3zt60z_6eu4txt2deNtB6_14CommaSeparatedNtNtCs2oGb9mSlBjX_10serde_core2de9MapAccess13next_key_seedINtNtCs6joXTnudZij_4core6marker11PhantomDataNtNvXNvNtCs1DvYjaJLFM2_7eu4data3maps_1__NtB2C_10DefaultMapNtBT_11Deserialize11deserialize7___FieldEECs7SMMKP1jOwW_5eu4rs
FNDA:0,_RINvXs5_NtCs5WJ3N3zt60z_6eu4txt2deNtB6_14CommaSeparatedNtNtCs2oGb9mSlBjX_10serde_core2de9MapAccess13next_key_seedNtNtNtCsbw3WoEYoaD8_10serde_json5value2de13KeyClassifierECs7SMMKP1jOwW_5eu4rs
FNDA:0,_RINvXs5_NtCs5WJ3N3zt60z_6eu4txt2deNtB6_14CommaSeparatedNtNtCs2oGb9mSlBjX_10serde_core2de9MapAccess15next_value_seedINtNtCs6joXTnudZij_4core6marker11PhantomDataINtNtB1U_6option6OptionINtNtNtNtCs9V5XLWeEmQj_3std11collections4hash3map7HashMapNtNtCs2YhQnMI27q1_5alloc6string6StringNtNtCsbw3WoEYoaD8_10serde_json5value5ValueEEEECs7SMMKP1jOwW_5eu4rs
FNDA:0,_RINvXs5_NtCs5WJ3N3zt60z_6eu4txt2deNtB6_14CommaSeparatedNtNtCs2oGb9mSlBjX_10serde_core2de9MapAccess15next_value_seedINtNtCs6joXTnudZij_4core6marker11PhantomDataINtNtB1U_6option6OptionINtNtNtNtCs9V5XLWeEmQj_3std11collections4hash3map7HashMapNtNtCs2YhQnMI27q1_5alloc6string6StringfEEEECs7SMMKP1jOwW_5eu4rs
FNDA:1,_RINvXs5_NtCs5WJ3N3zt60z_6eu4txt2deNtB6_14CommaSeparatedNtNtCs2oGb9mSlBjX_10serde_core2de9MapAccess15next_value_seedINtNtCs6joXTnudZij_4core6marker11PhantomDataINtNtCs2YhQnMI27q1_5alloc3vec3VecfEEECs7SMMKP1jOwW_5eu4rs
FNDA:0,_RINvXs5_NtCs5WJ3N3zt60z_6eu4txt2deNtB6_14CommaSeparatedNtNtCs2oGb9mSlBjX_10serde_core2de9MapAccess15next_value_seedINtNtCs6joXTnudZij_4core6marker11PhantomDataINtNtCs2YhQnMI27q1_5alloc3vec3VecmEEECs7SMMKP1jOwW_5eu4rs
FNDA:0,_RINvXs5_NtCs5WJ3N3zt60z_6eu4txt2deNtB6_14CommaSeparatedNtNtCs2oGb9mSlBjX_10serde_core2de9MapAccess15next_value_seedINtNtCs6joXTnudZij_4core6marker11PhantomDataINtNtNtNtCs9V5XLWeEmQj_3std11collections4hash3map7HashMapNtNtCs2YhQnMI27q1_5alloc6string6StringfEEECs7SMMKP1jOwW_5eu4rs
FNDA:1,_RINvXs5_NtCs5WJ3N3zt60z_6eu4txt2deNtB6_14CommaSeparatedNtNtCs2oGb9mSlBjX_10serde_core2de9MapAccess15next_value_seedINtNtCs6joXTnudZij_4core6marker11PhantomDataNtCs1DvYjaJLFM2_7eu4data9TradegoodEECs7SMMKP1jOwW_5eu4rs
FNDA:0,_RINvXs5_NtCs5WJ3N3zt60z_6eu4txt2deNtB6_14CommaSeparatedNtNtCs2oGb9mSlBjX_10serde_core2de9MapAccess15next_value_seedINtNtCs6joXTnudZij_4core6marker11PhantomDataNtNtCsbw3WoEYoaD8_10serde_json5value5ValueEECs7SMMKP1jOwW_5eu4rs
FNDA:0,_RINvXs5_NtCs5WJ3N3zt60z_6eu4txt2deNtB6_14CommaSeparatedNtNtCs2oGb9mSlBjX_10serde_core2de9MapAccess15next_value_seedINtNtCs6joXTnudZij_4core6marker11PhantomDatafEECs7SMMKP1jOwW_5eu4rs
FNDA:0,_RNCINvNtCs5WJ3N3zt60z_6eu4txt2de9from_nodeINtNtNtNtCs9V5XLWeEmQj_3std11collections4hash3map7HashMapNtNtCs2YhQnMI27q1_5alloc6string6StringNtCs1DvYjaJLFM2_7eu4data9TradegoodEE0Cs7SMMKP1jOwW_5eu4rs
FNDA:0,_RNCINvNtCs5WJ3N3zt60z_6eu4txt2de9from_nodeNtNtCs1DvYjaJLFM2_7eu4data3map10DefaultMapE0Cs7SMMKP1jOwW_5eu4rs
FNDA:0,_RNCINvXs2_NtCs5WJ3N3zt60z_6eu4txt2deQNtB8_12DeserializerNtNtCs2oGb9mSlBjX_10serde_core2de12Deserializer15deserialize_anyNtNvXNtNtCsbw3WoEYoaD8_10serde_json5value2deNtB21_5ValueNtBU_11Deserialize11deserialize12ValueVisitorE0Cs7SMMKP1jOwW_5eu4rs
FNDA:0,_RNCINvXs2_NtCs5WJ3N3zt60z_6eu4txt2deQNtB8_12DeserializerNtNtCs2oGb9mSlBjX_10serde_core2de12Deserializer15deserialize_anyNtNvXNvCs1DvYjaJLFM2_7eu4data1__NtB21_9TradegoodNtBU_11Deserialize11deserialize14___FieldVisitorE0Cs7SMMKP1jOwW_5eu4rs
FNDA:0,_RNCINvXs2_NtCs5WJ3N3zt60z_6eu4txt2deQNtB8_12DeserializerNtNtCs2oGb9mSlBjX_10serde_core2de12Deserializer15deserialize_anyNtNvXNvNtCs1DvYjaJLFM2_7eu4data3maps_1__NtB21_10DefaultMapNtBU_11Deserialize11deserialize14___FieldVisitorE0Cs7SMMKP1jOwW_5eu4rs
FNDA:0,_RNCINvXs2_NtCs5WJ3N3zt60z_6eu4txt2deQNtB8_12DeserializerNtNtCs2oGb9mSlBjX_10serde_core2de12Deserializer15deserialize_anyNtNvXs14_NtBU_5implsmNtBU_11Deserialize11deserialize16PrimitiveVisitorE0Cs7SMMKP1jOwW_5eu4rs
FNDA:0,_RINvNtCsioskNl2EwFx_6eu4txt2de9from_nodepEB4_
FNDA:0,_RINvXs1_NtCsioskNl2EwFx_6eu4txt2deNtB6_5ErrorNtNtCs2oGb9mSlBjX_10serde_core2de5Error6custompEB8_
FNDA:0,_RINvXs2_NtCsioskNl2EwFx_6eu4txt2deQNtB6_12DeserializerNtNtCs2oGb9mSlBjX_10serde_core2de12Deserializer15deserialize_anypEB8_
FNDA:0,_RINvXs2_NtCsioskNl2EwFx_6eu4txt2deQNtB6_12DeserializerNtNtCs2oGb9mSlBjX_10serde_core2de12Deserializer15deserialize_f32pEB8_
FNDA:0,_RINvXs2_NtCsioskNl2EwFx_6eu4txt2deQNtB6_12DeserializerNtNtCs2oGb9mSlBjX_10serde_core2de12Deserializer15deserialize_i32pEB8_
FNDA:0,_RINvXs2_NtCsioskNl2EwFx_6eu4txt2deQNtB6_12DeserializerNtNtCs2oGb9mSlBjX_10serde_core2de12Deserializer15deserialize_mappEB8_
FNDA:0,_RINvXs2_NtCsioskNl2EwFx_6eu4txt2deQNtB6_12DeserializerNtNtCs2oGb9mSlBjX_10serde_core2de12Deserializer15deserialize_seqpEB8_
FNDA:0,_RINvXs2_NtCsioskNl2EwFx_6eu4txt2deQNtB6_12DeserializerNtNtCs2oGb9mSlBjX_10serde_core2de12Deserializer15deserialize_strpEB8_
FNDA:0,_RINvXs2_NtCsioskNl2EwFx_6eu4txt2deQNtB6_12DeserializerNtNtCs2oGb9mSlBjX_10serde_core2de12Deserializer16deserialize_boolpEB8_
FNDA:0,_RINvXs2_NtCsioskNl2EwFx_6eu4txt2deQNtB6_12DeserializerNtNtCs2oGb9mSlBjX_10serde_core2de12Deserializer18deserialize_optionpEB8_
FNDA:0,_RINvXs2_NtCsioskNl2EwFx_6eu4txt2deQNtB6_12DeserializerNtNtCs2oGb9mSlBjX_10serde_core2de12Deserializer18deserialize_stringpEB8_
FNDA:0,_RINvXs2_NtCsioskNl2EwFx_6eu4txt2deQNtB6_12DeserializerNtNtCs2oGb9mSlBjX_10serde_core2de12Deserializer18deserialize_structpEB8_
FNDA:0,_RINvXs4_NtCsioskNl2EwFx_6eu4txt2deNtB6_14CommaSeparatedNtNtCs2oGb9mSlBjX_10serde_core2de9SeqAccess17next_element_seedpEB8_
FNDA:0,_RINvXs5_NtCsioskNl2EwFx_6eu4txt2deNtB6_14CommaSeparatedNtNtCs2oGb9mSlBjX_10serde_core2de9MapAccess13next_key_seedpEB8_
FNDA:0,_RINvXs5_NtCsioskNl2EwFx_6eu4txt2deNtB6_14CommaSeparatedNtNtCs2oGb9mSlBjX_10serde_core2de9MapAccess15next_value_seedpEB8_
FNDA:0,_RNCINvNtCsioskNl2EwFx_6eu4txt2de9from_nodepE0B6_
FNDA:0,_RNCINvXs2_NtCsioskNl2EwFx_6eu4txt2deQNtB8_12DeserializerNtNtCs2oGb9mSlBjX_10serde_core2de12Deserializer15deserialize_anypE0Ba_
FNDA:0,_RNvMNtCsioskNl2EwFx_6eu4txt2deNtB2_12Deserializer9from_node
FNDA:0,_RNvMs3_NtCsioskNl2EwFx_6eu4txt2deNtB5_14CommaSeparated3new
FNDA:0,_RNvXs_NtCsioskNl2EwFx_6eu4txt2deNtB4_5ErrorNtNtCs6joXTnudZij_4core3fmt7Display3fmt
FNF:20
FNH:18
DA:14,147
DA:15,147
DA:16,147
DA:17,147
DA:18,147
DA:19,147
DA:22,24
DA:23,24
DA:24,24
DA:26,24
DA:27,24
DA:28,23
DA:29,24
DA:35,1
DA:36,1
DA:37,1
DA:41,0
DA:42,0
DA:43,0
DA:49,55
DA:50,55
DA:51,55
DA:53,55
DA:54,39
DA:55,16
DA:56,0
DA:62,0
DA:63,0
DA:64,0
DA:65,0
DA:66,0
DA:68,0
DA:69,0
DA:70,0
DA:76,0
DA:77,0
DA:78,0
DA:80,0
DA:81,0
DA:82,0
DA:83,0
DA:85,55
DA:87,2
DA:88,2
DA:89,2
DA:91,2
DA:92,2
DA:93,2
DA:94,1
DA:95,1
DA:96,1
DA:98,0
DA:101,0
DA:103,2
DA:105,5
DA:106,5
DA:107,5
DA:109,5
DA:110,5
DA:111,0
DA:113,5
DA:114,18
DA:115,18
DA:116,18
DA:118,18
DA:119,12
DA:120,6
DA:121,0
DA:123,18
DA:125,23
DA:126,23
DA:127,23
DA:129,23
DA:130,23
DA:131,0
DA:133,23
DA:135,23
DA:136,23
DA:137,23
DA:139,23
DA:140,23
DA:142,13
DA:143,13
DA:144,13
DA:146,13
DA:147,13
DA:149,25
DA:150,25
DA:151,25
DA:152,25
DA:153,25
DA:154,25
DA:155,25
DA:156,25
DA:158,25
DA:159,25
DA:161,31
DA:162,31
DA:163,31
DA:165,31
DA:166,31
DA:168,15
DA:169,15
DA:170,15
DA:175,15
DA:176,15
DA:191,44
DA:192,44
DA:193,44
DA:199,46
DA:200,46
DA:201,46
DA:203,46
DA:204,33
DA:209,33
DA:210,33
DA:212,13
DA:214,46
DA:220,76
DA:221,76
DA:222,76
DA:228,76
DA:229,46
DA:233,45
DA:234,45
DA:235,45
DA:236,45
DA:237,45
DA:238,45
DA:239,45
DA:240,45
DA:241,45
DA:243,45
DA:244,45
DA:251,1
DA:252,1
DA:253,1
DA:254,1
DA:258,30
DA:260,76
DA:262,45
DA:263,45
DA:264,45
DA:266,45
DA:267,45
DA:268,45
DA:269,45
DA:270,45
DA:271,45
BRF:0
BRH:0
LF:151
LH:125
end_of_record
SF:C:\Users\atv\Documents\src\eu4rs\eu4txt\src\lib.rs
FN:288,_RNCNvYNtCs5WJ3N3zt60z_6eu4txt13DefaultEU4TxtNtB6_6EU4Txt5parse0CsaHGe17Pe3JB_8de_tests
FN:193,_RNvYNtCs5WJ3N3zt60z_6eu4txt13DefaultEU4TxtNtB4_6EU4Txt14parse_terminalCsaHGe17Pe3JB_8de_tests
FN:223,_RNvYNtCs5WJ3N3zt60z_6eu4txt13DefaultEU4TxtNtB4_6EU4Txt21parse_assignment_listCsaHGe17Pe3JB_8de_tests
FN:283,_RNvYNtCs5WJ3N3zt60z_6eu4txt13DefaultEU4TxtNtB4_6EU4Txt5parseCsaHGe17Pe3JB_8de_tests
FN:88,_RNvYNtCs5WJ3N3zt60z_6eu4txt13DefaultEU4TxtNtB4_6EU4Txt8open_txtCsaHGe17Pe3JB_8de_tests
FN:82,_RNvMs_Cs5WJ3N3zt60z_6eu4txtNtB4_15EU4TxtParseNode10node_count
FN:74,_RNvMs_Cs5WJ3N3zt60z_6eu4txtNtB4_15EU4TxtParseNode3new
FN:67,_RNvXCs5WJ3N3zt60z_6eu4txtNtB2_15EU4TxtParseNodeNtNtCs6joXTnudZij_4core7default7Default7default
FN:83,_RNCNvMs_Cs5WJ3N3zt60z_6eu4txtNtB6_15EU4TxtParseNode10node_count0B6_
FN:288,_RNCNvYpNtCs5WJ3N3zt60z_6eu4txt6EU4Txt5parse0B7_
FN:302,_RNvYpNtCs5WJ3N3zt60z_6eu4txt6EU4Txt12pretty_printB5_
FN:193,_RNvYpNtCs5WJ3N3zt60z_6eu4txt6EU4Txt14parse_terminalB5_
FN:223,_RNvYpNtCs5WJ3N3zt60z_6eu4txt6EU4Txt21parse_assignment_listB5_
FN:283,_RNvYpNtCs5WJ3N3zt60z_6eu4txt6EU4Txt5parseB5_
FN:88,_RNvYpNtCs5WJ3N3zt60z_6eu4txt6EU4Txt8open_txtB5_
FN:288,_RNCNvYNtCs5WJ3N3zt60z_6eu4txt13DefaultEU4TxtNtB6_6EU4Txt5parse0Cs3CepgdPYNPZ_7eu4data
FN:193,_RNvYNtCs5WJ3N3zt60z_6eu4txt13DefaultEU4TxtNtB4_6EU4Txt14parse_terminalCs3CepgdPYNPZ_7eu4data
FN:223,_RNvYNtCs5WJ3N3zt60z_6eu4txt13DefaultEU4TxtNtB4_6EU4Txt21parse_assignment_listCs3CepgdPYNPZ_7eu4data
FN:283,_RNvYNtCs5WJ3N3zt60z_6eu4txt13DefaultEU4TxtNtB4_6EU4Txt5parseCs3CepgdPYNPZ_7eu4data
FN:88,_RNvYNtCs5WJ3N3zt60z_6eu4txt13DefaultEU4TxtNtB4_6EU4Txt8open_txtCs3CepgdPYNPZ_7eu4data
FN:302,_RNvYNtCs5WJ3N3zt60z_6eu4txt13DefaultEU4TxtNtB4_6EU4Txt12pretty_printCs1JhGRdf2CJD_5eu4rs
FN:288,_RNCNvYNtCs5WJ3N3zt60z_6eu4txt13DefaultEU4TxtNtB6_6EU4Txt5parse0Cs1DvYjaJLFM2_7eu4data
FN:193,_RNvYNtCs5WJ3N3zt60z_6eu4txt13DefaultEU4TxtNtB4_6EU4Txt14parse_terminalCs1DvYjaJLFM2_7eu4data
FN:223,_RNvYNtCs5WJ3N3zt60z_6eu4txt13DefaultEU4TxtNtB4_6EU4Txt21parse_assignment_listCs1DvYjaJLFM2_7eu4data
FN:283,_RNvYNtCs5WJ3N3zt60z_6eu4txt13DefaultEU4TxtNtB4_6EU4Txt5parseCs1DvYjaJLFM2_7eu4data
FN:88,_RNvYNtCs5WJ3N3zt60z_6eu4txt13DefaultEU4TxtNtB4_6EU4Txt8open_txtCs1DvYjaJLFM2_7eu4data
FN:302,_RNvYNtCs5WJ3N3zt60z_6eu4txt13DefaultEU4TxtNtB4_6EU4Txt12pretty_printCs7SMMKP1jOwW_5eu4rs
FN:364,_RNvNtCsioskNl2EwFx_6eu4txt5testss_11nonexistent
FN:392,_RNvNtCsioskNl2EwFx_6eu4txt5testss_12pretty_print
FN:380,_RNvNtCsioskNl2EwFx_6eu4txt5testss_5parse
FN:370,_RNvNtCsioskNl2EwFx_6eu4txt5testss_6exists
FN:288,_RNCNvYNtCsioskNl2EwFx_6eu4txt13DefaultEU4TxtNtB6_6EU4Txt5parse0B6_
FN:302,_RNvYNtCsioskNl2EwFx_6eu4txt13DefaultEU4TxtNtB4_6EU4Txt12pretty_printB4_
FN:193,_RNvYNtCsioskNl2EwFx_6eu4txt13DefaultEU4TxtNtB4_6EU4Txt14parse_terminalB4_
FN:223,_RNvYNtCsioskNl2EwFx_6eu4txt13DefaultEU4TxtNtB4_6EU4Txt21parse_assignment_listB4_
FN:283,_RNvYNtCsioskNl2EwFx_6eu4txt13DefaultEU4TxtNtB4_6EU4Txt5parseB4_
FN:88,_RNvYNtCsioskNl2EwFx_6eu4txt13DefaultEU4TxtNtB4_6EU4Txt8open_txtB4_
FN:83,_RNCNvMs_CsioskNl2EwFx_6eu4txtNtB6_15EU4TxtParseNode10node_count0B6_
FN:82,_RNvMs_CsioskNl2EwFx_6eu4txtNtB4_15EU4TxtParseNode10node_count
FN:67,_RNvXCsioskNl2EwFx_6eu4txtNtB2_15EU4TxtParseNodeNtNtCs6joXTnudZij_4core7default7Default7default
FN:74,_RNvMs_CsioskNl2EwFx_6eu4txtNtB4_15EU4TxtParseNode3new
FNDA:4,_RNCNvYNtCs5WJ3N3zt60z_6eu4txt13DefaultEU4TxtNtB6_6EU4Txt5parse0CsaHGe17Pe3JB_8de_tests
FNDA:21,_RNvYNtCs5WJ3N3zt60z_6eu4txt13DefaultEU4TxtNtB4_6EU4Txt14parse_terminalCsaHGe17Pe3JB_8de_tests
FNDA:7,_RNvYNtCs5WJ3N3zt60z_6eu4txt13DefaultEU4TxtNtB4_6EU4Txt21parse_assignment_listCsaHGe17Pe3JB_8de_tests
FNDA:4,_RNvYNtCs5WJ3N3zt60z_6eu4txt13DefaultEU4TxtNtB4_6EU4Txt5parseCsaHGe17Pe3JB_8de_tests
FNDA:4,_RNvYNtCs5WJ3N3zt60z_6eu4txt13DefaultEU4TxtNtB4_6EU4Txt8open_txtCsaHGe17Pe3JB_8de_tests
FNDA:8,_RNvMs_Cs5WJ3N3zt60z_6eu4txtNtB4_15EU4TxtParseNode10node_count
FNDA:219,_RNvMs_Cs5WJ3N3zt60z_6eu4txtNtB4_15EU4TxtParseNode3new
FNDA:0,_RNvXCs5WJ3N3zt60z_6eu4txtNtB2_15EU4TxtParseNodeNtNtCs6joXTnudZij_4core7default7Default7default
FNDA:6,_RNCNvMs_Cs5WJ3N3zt60z_6eu4txtNtB6_15EU4TxtParseNode10node_count0B6_
FNDA:0,_RNCNvYpNtCs5WJ3N3zt60z_6eu4txt6EU4Txt5parse0B7_
FNDA:0,_RNvYpNtCs5WJ3N3zt60z_6eu4txt6EU4Txt12pretty_printB5_
FNDA:0,_RNvYpNtCs5WJ3N3zt60z_6eu4txt6EU4Txt14parse_terminalB5_
FNDA:0,_RNvYpNtCs5WJ3N3zt60z_6eu4txt6EU4Txt21parse_assignment_listB5_
FNDA:0,_RNvYpNtCs5WJ3N3zt60z_6eu4txt6EU4Txt5parseB5_
FNDA:0,_RNvYpNtCs5WJ3N3zt60z_6eu4txt6EU4Txt8open_txtB5_
FNDA:7,_RNCNvYNtCs5WJ3N3zt60z_6eu4txt13DefaultEU4TxtNtB6_6EU4Txt5parse0Cs3CepgdPYNPZ_7eu4data
FNDA:38,_RNvYNtCs5WJ3N3zt60z_6eu4txt13DefaultEU4TxtNtB4_6EU4Txt14parse_terminalCs3CepgdPYNPZ_7eu4data
FNDA:12,_RNvYNtCs5WJ3N3zt60z_6eu4txt13DefaultEU4TxtNtB4_6EU4Txt21parse_assignment_listCs3CepgdPYNPZ_7eu4data
FNDA:7,_RNvYNtCs5WJ3N3zt60z_6eu4txt13DefaultEU4TxtNtB4_6EU4Txt5parseCs3CepgdPYNPZ_7eu4data
FNDA:7,_RNvYNtCs5WJ3N3zt60z_6eu4txt13DefaultEU4TxtNtB4_6EU4Txt8open_txtCs3CepgdPYNPZ_7eu4data
FNDA:0,_RNvYNtCs5WJ3N3zt60z_6eu4txt13DefaultEU4TxtNtB4_6EU4Txt12pretty_printCs1JhGRdf2CJD_5eu4rs
FNDA:17,_RNCNvYNtCs5WJ3N3zt60z_6eu4txt13DefaultEU4TxtNtB6_6EU4Txt5parse0Cs1DvYjaJLFM2_7eu4data
FNDA:61,_RNvYNtCs5WJ3N3zt60z_6eu4txt13DefaultEU4TxtNtB4_6EU4Txt14parse_terminalCs1DvYjaJLFM2_7eu4data
FNDA:30,_RNvYNtCs5WJ3N3zt60z_6eu4txt13DefaultEU4TxtNtB4_6EU4Txt21parse_assignment_listCs1DvYjaJLFM2_7eu4data
FNDA:18,_RNvYNtCs5WJ3N3zt60z_6eu4txt13DefaultEU4TxtNtB4_6EU4Txt5parseCs1DvYjaJLFM2_7eu4data
FNDA:18,_RNvYNtCs5WJ3N3zt60z_6eu4txt13DefaultEU4TxtNtB4_6EU4Txt8open_txtCs1DvYjaJLFM2_7eu4data
FNDA:3,_RNvYNtCs5WJ3N3zt60z_6eu4txt13DefaultEU4TxtNtB4_6EU4Txt12pretty_printCs7SMMKP1jOwW_5eu4rs
FNDA:1,_RNvNtCsioskNl2EwFx_6eu4txt5testss_11nonexistent
FNDA:1,_RNvNtCsioskNl2EwFx_6eu4txt5testss_12pretty_print
FNDA:1,_RNvNtCsioskNl2EwFx_6eu4txt5testss_5parse
FNDA:1,_RNvNtCsioskNl2EwFx_6eu4txt5testss_6exists
FNDA:2,_RNCNvYNtCsioskNl2EwFx_6eu4txt13DefaultEU4TxtNtB6_6EU4Txt5parse0B6_
FNDA:3,_RNvYNtCsioskNl2EwFx_6eu4txt13DefaultEU4TxtNtB4_6EU4Txt12pretty_printB4_
FNDA:4,_RNvYNtCsioskNl2EwFx_6eu4txt13DefaultEU4TxtNtB4_6EU4Txt14parse_terminalB4_
FNDA:2,_RNvYNtCsioskNl2EwFx_6eu4txt13DefaultEU4TxtNtB4_6EU4Txt21parse_assignment_listB4_
FNDA:2,_RNvYNtCsioskNl2EwFx_6eu4txt13DefaultEU4TxtNtB4_6EU4Txt5parseB4_
FNDA:4,_RNvYNtCsioskNl2EwFx_6eu4txt13DefaultEU4TxtNtB4_6EU4Txt8open_txtB4_
FNDA:0,_RNCNvMs_CsioskNl2EwFx_6eu4txtNtB6_15EU4TxtParseNode10node_count0B6_
FNDA:0,_RNvMs_CsioskNl2EwFx_6eu4txtNtB4_15EU4TxtParseNode10node_count
FNDA:0,_RNvXCsioskNl2EwFx_6eu4txtNtB2_15EU4TxtParseNodeNtNtCs6joXTnudZij_4core7default7Default7default
FNDA:8,_RNvMs_CsioskNl2EwFx_6eu4txtNtB4_15EU4TxtParseNode3new
FNF:14
FNH:13
DA:67,0
DA:68,0
DA:69,0
DA:74,227
DA:75,227
DA:76,227
DA:77,227
DA:78,227
DA:79,227
DA:82,8
DA:83,8
DA:84,8
DA:88,33
DA:89,33
DA:90,33
DA:91,32
DA:92,32
DA:93,32
DA:94,32
DA:96,32
DA:97,32
DA:99,32
DA:100,32
DA:102,965
DA:103,933
DA:104,933
DA:105,713
DA:106,713
DA:109,0
DA:110,0
DA:111,0
DA:112,0
DA:113,0
DA:114,0
DA:115,0
DA:119,20
DA:120,20
DA:121,20
DA:122,20
DA:123,20
DA:124,20
DA:125,20
DA:126,20
DA:127,54
DA:128,54
DA:129,54
DA:130,54
DA:133,7
DA:134,7
DA:135,80
DA:136,80
DA:137,7
DA:138,7
DA:139,73
DA:142,73
DA:144,7
DA:148,119
DA:149,647
DA:150,644
DA:151,528
DA:152,528
DA:153,528
DA:154,528
DA:155,528
DA:157,116
DA:158,528
DA:159,528
DA:162,119
DA:163,27
DA:164,92
DA:165,12
DA:166,0
DA:173,0
DA:174,0
DA:175,0
DA:176,0
DA:177,0
DA:178,0
DA:179,0
DA:180,0
DA:181,12
DA:182,12
DA:183,12
DA:184,80
DA:185,80
DA:186,80
DA:190,32
DA:191,33
DA:193,124
DA:194,124
DA:195,124
DA:196,124
DA:197,124
DA:198,124
DA:199,78
DA:200,78
DA:201,78
DA:202,78
DA:204,27
DA:205,27
DA:206,27
DA:207,27
DA:209,12
DA:210,12
DA:211,12
DA:212,12
DA:214,7
DA:215,7
DA:216,7
DA:217,7
DA:219,0
DA:221,124
DA:223,51
DA:224,51
DA:225,51
DA:226,51
DA:227,51
DA:228,51
DA:229,51
DA:231,142
DA:232,30
DA:233,112
DA:234,112
DA:235,112
DA:236,112
DA:237,112
DA:238,20
DA:239,20
DA:240,92
DA:241,92
DA:244,92
DA:245,92
DA:246,1
DA:247,1
DA:248,1
DA:249,91
DA:250,91
DA:252,53
DA:255,52
DA:257,20
DA:260,32
DA:263,52
DA:264,52
DA:265,52
DA:266,52
DA:267,52
DA:268,52
DA:270,38
DA:271,38
DA:272,38
DA:273,38
DA:274,38
DA:275,38
DA:276,38
DA:277,38
DA:280,50
DA:281,51
DA:283,31
DA:285,31
DA:286,0
DA:287,31
DA:288,31
DA:289,30
DA:290,30
DA:292,0
DA:293,0
DA:294,0
DA:295,0
DA:296,0
DA:297,0
DA:299,30
DA:300,31
DA:302,6
DA:303,6
DA:305,2
DA:306,0
DA:307,2
DA:308,4
DA:309,2
DA:311,2
DA:312,0
DA:313,0
DA:314,0
DA:315,0
DA:316,2
DA:319,2
DA:320,2
DA:321,2
DA:322,2
DA:323,2
DA:324,2
DA:325,2
DA:326,2
DA:328,0
DA:331,2
DA:332,2
DA:333,2
DA:335,0
DA:336,0
DA:337,0
DA:338,0
DA:339,0
DA:340,0
DA:341,2
DA:342,2
DA:343,2
DA:344,0
DA:345,0
DA:346,0
DA:347,0
DA:348,0
DA:349,0
DA:351,6
DA:352,6
DA:364,1
DA:365,1
DA:366,1
DA:367,1
DA:370,1
DA:371,1
DA:372,1
DA:373,1
DA:375,1
DA:376,1
DA:377,1
DA:380,1
DA:381,1
DA:382,1
DA:383,1
DA:385,1
DA:386,1
DA:387,1
DA:388,1
DA:389,1
DA:392,1
DA:393,1
DA:394,1
DA:395,1
DA:397,1
DA:398,1
DA:399,1
DA:400,1
DA:401,1
DA:402,1
BRF:0
BRH:0
LF:246
LH:201
end_of_record